
os_demo:     file format elf32-littleriscv


Disassembly of section .init:

00000000 <_start>:
    .type    _start, @function

_start:
.option push
.option norelax
    la      gp, __global_pointer$
   0:	20001197          	auipc	gp,0x20001
   4:	80418193          	addi	gp,gp,-2044 # 20000804 <__global_pointer$>
.option pop
    la      sp, __stack_top
   8:	20040117          	auipc	sp,0x20040
   c:	ff810113          	addi	sp,sp,-8 # 20040000 <__stack_top>

    /* ------------------------------------------------------------- */
    /* Copy .data: ROM LMA at _data_lma into RAM VMA [_data, _edata) */
    /* ------------------------------------------------------------- */
    la      a0, _data_lma
  10:	00001517          	auipc	a0,0x1
  14:	b5c50513          	addi	a0,a0,-1188 # b6c <_data_lma>
    la      a1, _data
  18:	20000597          	auipc	a1,0x20000
  1c:	fe858593          	addi	a1,a1,-24 # 20000000 <cur_task>
    la      a2, _edata
  20:	20000617          	auipc	a2,0x20000
  24:	fe460613          	addi	a2,a2,-28 # 20000004 <_edata>
    bgeu    a1, a2, 2f
  28:	00c5fc63          	bgeu	a1,a2,40 <_start+0x40>
1:
    lw      t0, 0(a0)
  2c:	00052283          	lw	t0,0(a0)
    sw      t0, 0(a1)
  30:	0055a023          	sw	t0,0(a1)
    addi    a0, a0, 4
  34:	00450513          	addi	a0,a0,4
    addi    a1, a1, 4
  38:	00458593          	addi	a1,a1,4
    bltu    a1, a2, 1b
  3c:	fec5e8e3          	bltu	a1,a2,2c <_start+0x2c>
2:

    /* ------------------------------------------------------------- */
    /* Zero-fill .bss + .sbss: [_fbss, _end)                         */
    /* ------------------------------------------------------------- */
    la      a0, _fbss
  40:	20000517          	auipc	a0,0x20000
  44:	fd050513          	addi	a0,a0,-48 # 20000010 <task_done>
    la      a1, _end
  48:	20002597          	auipc	a1,0x20002
  4c:	11858593          	addi	a1,a1,280 # 20002160 <_end>
    bgeu    a0, a1, 2f
  50:	00b57863          	bgeu	a0,a1,60 <_start+0x60>
1:
    sw      zero, 0(a0)
  54:	00052023          	sw	zero,0(a0)
    addi    a0, a0, 4
  58:	00450513          	addi	a0,a0,4
    bltu    a0, a1, 1b
  5c:	feb56ce3          	bltu	a0,a1,54 <_start+0x54>
2:

    /* ------------------------------------------------------------- */
    /* Off to C.                                                     */
    /* ------------------------------------------------------------- */
    call    main
  60:	268000ef          	jal	2c8 <main>
    /* If main ever returns, loop forever so a hang is visible in the
     * testbench.  Programs that want the sim to exit cleanly should
     * either (a) set x26=1,x27=1 before returning (legacy protocol)
     * or (b) print a UART_PASS_PATTERN banner.                       */
.L_halt:
    j       .L_halt
  64:	0000006f          	j	64 <_start+0x64>

Disassembly of section .text:

00000070 <bsp_trap_entry>:
#define OFF_MCAUSE        (33 * 4)
#define OFF_MTVAL         (34 * 4)
#define OFF_MSTATUS       (35 * 4)

bsp_trap_entry:
    addi    sp, sp, -FRAME_SIZE
  70:	f6810113          	addi	sp,sp,-152

    /* x0 slot left as-is (reads as zero). */
    sw      x1,  OFF_X(1)(sp)
  74:	00112223          	sw	ra,4(sp)
    sw      x2,  OFF_X(2)(sp)            /* original sp is sp+FRAME_SIZE */
  78:	00212423          	sw	sp,8(sp)
    sw      x3,  OFF_X(3)(sp)
  7c:	00312623          	sw	gp,12(sp)
    sw      x4,  OFF_X(4)(sp)
  80:	00412823          	sw	tp,16(sp)
    sw      x5,  OFF_X(5)(sp)
  84:	00512a23          	sw	t0,20(sp)
    sw      x6,  OFF_X(6)(sp)
  88:	00612c23          	sw	t1,24(sp)
    sw      x7,  OFF_X(7)(sp)
  8c:	00712e23          	sw	t2,28(sp)
    sw      x8,  OFF_X(8)(sp)
  90:	02812023          	sw	s0,32(sp)
    sw      x9,  OFF_X(9)(sp)
  94:	02912223          	sw	s1,36(sp)
    sw      x10, OFF_X(10)(sp)
  98:	02a12423          	sw	a0,40(sp)
    sw      x11, OFF_X(11)(sp)
  9c:	02b12623          	sw	a1,44(sp)
    sw      x12, OFF_X(12)(sp)
  a0:	02c12823          	sw	a2,48(sp)
    sw      x13, OFF_X(13)(sp)
  a4:	02d12a23          	sw	a3,52(sp)
    sw      x14, OFF_X(14)(sp)
  a8:	02e12c23          	sw	a4,56(sp)
    sw      x15, OFF_X(15)(sp)
  ac:	02f12e23          	sw	a5,60(sp)
    sw      x16, OFF_X(16)(sp)
  b0:	05012023          	sw	a6,64(sp)
    sw      x17, OFF_X(17)(sp)
  b4:	05112223          	sw	a7,68(sp)
    sw      x18, OFF_X(18)(sp)
  b8:	05212423          	sw	s2,72(sp)
    sw      x19, OFF_X(19)(sp)
  bc:	05312623          	sw	s3,76(sp)
    sw      x20, OFF_X(20)(sp)
  c0:	05412823          	sw	s4,80(sp)
    sw      x21, OFF_X(21)(sp)
  c4:	05512a23          	sw	s5,84(sp)
    sw      x22, OFF_X(22)(sp)
  c8:	05612c23          	sw	s6,88(sp)
    sw      x23, OFF_X(23)(sp)
  cc:	05712e23          	sw	s7,92(sp)
    sw      x24, OFF_X(24)(sp)
  d0:	07812023          	sw	s8,96(sp)
    sw      x25, OFF_X(25)(sp)
  d4:	07912223          	sw	s9,100(sp)
    sw      x26, OFF_X(26)(sp)
  d8:	07a12423          	sw	s10,104(sp)
    sw      x27, OFF_X(27)(sp)
  dc:	07b12623          	sw	s11,108(sp)
    sw      x28, OFF_X(28)(sp)
  e0:	07c12823          	sw	t3,112(sp)
    sw      x29, OFF_X(29)(sp)
  e4:	07d12a23          	sw	t4,116(sp)
    sw      x30, OFF_X(30)(sp)
  e8:	07e12c23          	sw	t5,120(sp)
    sw      x31, OFF_X(31)(sp)
  ec:	07f12e23          	sw	t6,124(sp)

    /* Fix up the saved x2 to reflect the pre-trap sp (sp+FRAME_SIZE). */
    addi    t0, sp, FRAME_SIZE
  f0:	09810293          	addi	t0,sp,152
    sw      t0, OFF_X(2)(sp)
  f4:	00512423          	sw	t0,8(sp)

    /* Snapshot the trap CSRs so the C handler can read them directly. */
    csrr    t0, mepc
  f8:	341022f3          	csrr	t0,mepc
    sw      t0, OFF_MEPC(sp)
  fc:	08512023          	sw	t0,128(sp)
    csrr    t0, mcause
 100:	342022f3          	csrr	t0,mcause
    sw      t0, OFF_MCAUSE(sp)
 104:	08512223          	sw	t0,132(sp)
    csrr    t0, mtval
 108:	343022f3          	csrr	t0,mtval
    sw      t0, OFF_MTVAL(sp)
 10c:	08512423          	sw	t0,136(sp)
    csrr    t0, mstatus
 110:	300022f3          	csrr	t0,mstatus
    sw      t0, OFF_MSTATUS(sp)
 114:	08512623          	sw	t0,140(sp)

    /* Pass &frame as the first argument. */
    mv      a0, sp
 118:	00010513          	mv	a0,sp
    call    bsp_trap_dispatch
 11c:	464000ef          	jal	580 <bsp_trap_dispatch>

    /* Handlers may rewrite frame.mepc (e.g. to skip past an ecall).   */
    lw      t0, OFF_MEPC(sp)
 120:	08012283          	lw	t0,128(sp)
    csrw    mepc, t0
 124:	34129073          	csrw	mepc,t0
    lw      t0, OFF_MSTATUS(sp)
 128:	08c12283          	lw	t0,140(sp)
    csrw    mstatus, t0
 12c:	30029073          	csrw	mstatus,t0

    lw      x1,  OFF_X(1)(sp)
 130:	00412083          	lw	ra,4(sp)
    /* x2 (sp) is NOT reloaded from the frame: we want it to point at
     * sp+FRAME_SIZE after the matching `addi sp, sp, +FRAME_SIZE` at
     * the bottom.  Reloading the stored sp here would just undo the
     * save sequence.                                                  */
    lw      x3,  OFF_X(3)(sp)
 134:	00c12183          	lw	gp,12(sp)
    lw      x4,  OFF_X(4)(sp)
 138:	01012203          	lw	tp,16(sp)
    lw      x5,  OFF_X(5)(sp)
 13c:	01412283          	lw	t0,20(sp)
    lw      x6,  OFF_X(6)(sp)
 140:	01812303          	lw	t1,24(sp)
    lw      x7,  OFF_X(7)(sp)
 144:	01c12383          	lw	t2,28(sp)
    lw      x8,  OFF_X(8)(sp)
 148:	02012403          	lw	s0,32(sp)
    lw      x9,  OFF_X(9)(sp)
 14c:	02412483          	lw	s1,36(sp)
    lw      x10, OFF_X(10)(sp)
 150:	02812503          	lw	a0,40(sp)
    lw      x11, OFF_X(11)(sp)
 154:	02c12583          	lw	a1,44(sp)
    lw      x12, OFF_X(12)(sp)
 158:	03012603          	lw	a2,48(sp)
    lw      x13, OFF_X(13)(sp)
 15c:	03412683          	lw	a3,52(sp)
    lw      x14, OFF_X(14)(sp)
 160:	03812703          	lw	a4,56(sp)
    lw      x15, OFF_X(15)(sp)
 164:	03c12783          	lw	a5,60(sp)
    lw      x16, OFF_X(16)(sp)
 168:	04012803          	lw	a6,64(sp)
    lw      x17, OFF_X(17)(sp)
 16c:	04412883          	lw	a7,68(sp)
    lw      x18, OFF_X(18)(sp)
 170:	04812903          	lw	s2,72(sp)
    lw      x19, OFF_X(19)(sp)
 174:	04c12983          	lw	s3,76(sp)
    lw      x20, OFF_X(20)(sp)
 178:	05012a03          	lw	s4,80(sp)
    lw      x21, OFF_X(21)(sp)
 17c:	05412a83          	lw	s5,84(sp)
    lw      x22, OFF_X(22)(sp)
 180:	05812b03          	lw	s6,88(sp)
    lw      x23, OFF_X(23)(sp)
 184:	05c12b83          	lw	s7,92(sp)
    lw      x24, OFF_X(24)(sp)
 188:	06012c03          	lw	s8,96(sp)
    lw      x25, OFF_X(25)(sp)
 18c:	06412c83          	lw	s9,100(sp)
    lw      x26, OFF_X(26)(sp)
 190:	06812d03          	lw	s10,104(sp)
    lw      x27, OFF_X(27)(sp)
 194:	06c12d83          	lw	s11,108(sp)
    lw      x28, OFF_X(28)(sp)
 198:	07012e03          	lw	t3,112(sp)
    lw      x29, OFF_X(29)(sp)
 19c:	07412e83          	lw	t4,116(sp)
    lw      x30, OFF_X(30)(sp)
 1a0:	07812f03          	lw	t5,120(sp)
    lw      x31, OFF_X(31)(sp)
 1a4:	07c12f83          	lw	t6,124(sp)

    addi    sp, sp, FRAME_SIZE
 1a8:	09810113          	addi	sp,sp,152
    mret
 1ac:	30200073          	mret

000001b0 <task1>:
     * completion checks.  Real RTOSes would sleep here instead.       */
    for (;;) task_yield();
}

static void task1(void)
{
 1b0:	fe010113          	addi	sp,sp,-32
 1b4:	00812c23          	sw	s0,24(sp)
 1b8:	00912a23          	sw	s1,20(sp)
 1bc:	01212823          	sw	s2,16(sp)
 1c0:	01312623          	sw	s3,12(sp)
 1c4:	00112e23          	sw	ra,28(sp)
    for (int i = 0; i < TASK_ITERS; i++) {
 1c8:	00000413          	li	s0,0
        uart_printf("[task1] iter=%d tick=%u\n", i, timer_count);
 1cc:	200009b7          	lui	s3,0x20000
 1d0:	00001937          	lui	s2,0x1
    for (int i = 0; i < TASK_ITERS; i++) {
 1d4:	00300493          	li	s1,3
        uart_printf("[task1] iter=%d tick=%u\n", i, timer_count);
 1d8:	0149a603          	lw	a2,20(s3) # 20000014 <timer_count>
 1dc:	00040593          	mv	a1,s0
 1e0:	9e090513          	addi	a0,s2,-1568 # 9e0 <uart_printf+0x238>
 1e4:	5c4000ef          	jal	7a8 <uart_printf>
    for (int i = 0; i < TASK_ITERS; i++) {
 1e8:	00140413          	addi	s0,s0,1
        task_yield();
 1ec:	20c000ef          	jal	3f8 <task_yield>
    for (int i = 0; i < TASK_ITERS; i++) {
 1f0:	fe9414e3          	bne	s0,s1,1d8 <task1+0x28>
    }
    task_done[1] = 1;
 1f4:	200007b7          	lui	a5,0x20000
 1f8:	01078793          	addi	a5,a5,16 # 20000010 <task_done>
 1fc:	00100713          	li	a4,1
 200:	00e780a3          	sb	a4,1(a5)
    for (;;) task_yield();
 204:	1f4000ef          	jal	3f8 <task_yield>
 208:	ffdff06f          	j	204 <task1+0x54>

0000020c <task0>:
{
 20c:	fe010113          	addi	sp,sp,-32
 210:	00812c23          	sw	s0,24(sp)
 214:	00912a23          	sw	s1,20(sp)
 218:	01212823          	sw	s2,16(sp)
 21c:	01312623          	sw	s3,12(sp)
 220:	00112e23          	sw	ra,28(sp)
    for (int i = 0; i < TASK_ITERS; i++) {
 224:	00000413          	li	s0,0
        uart_printf("[task0] iter=%d tick=%u\n", i, timer_count);
 228:	200009b7          	lui	s3,0x20000
 22c:	00001937          	lui	s2,0x1
    for (int i = 0; i < TASK_ITERS; i++) {
 230:	00300493          	li	s1,3
        uart_printf("[task0] iter=%d tick=%u\n", i, timer_count);
 234:	0149a603          	lw	a2,20(s3) # 20000014 <timer_count>
 238:	00040593          	mv	a1,s0
 23c:	9fc90513          	addi	a0,s2,-1540 # 9fc <uart_printf+0x254>
 240:	568000ef          	jal	7a8 <uart_printf>
    for (int i = 0; i < TASK_ITERS; i++) {
 244:	00140413          	addi	s0,s0,1
        task_yield();
 248:	1b0000ef          	jal	3f8 <task_yield>
    for (int i = 0; i < TASK_ITERS; i++) {
 24c:	fe9414e3          	bne	s0,s1,234 <task0+0x28>
    task_done[0] = 1;
 250:	200007b7          	lui	a5,0x20000
 254:	00100713          	li	a4,1
 258:	00e78823          	sb	a4,16(a5) # 20000010 <task_done>
    for (;;) task_yield();
 25c:	19c000ef          	jal	3f8 <task_yield>
 260:	ffdff06f          	j	25c <task0+0x50>

00000264 <clint_schedule_relative.constprop.0.isra.0>:
static inline void     mmio_write32(uintptr_t addr, uint32_t v) {
    *(volatile uint32_t *)addr = v;
}

static inline uint32_t mmio_read32(uintptr_t addr) {
    return *(volatile uint32_t *)addr;
 264:	4200c737          	lui	a4,0x4200c
 268:	4200c6b7          	lui	a3,0x4200c
 26c:	ffc70713          	addi	a4,a4,-4 # 4200bffc <__stack_top+0x21fcbffc>
 270:	ff868693          	addi	a3,a3,-8 # 4200bff8 <__stack_top+0x21fcbff8>
 274:	00072603          	lw	a2,0(a4)
 278:	0006a783          	lw	a5,0(a3)
 27c:	00072583          	lw	a1,0(a4)
    uint32_t hi0, lo, hi1;
    do {
        hi0 = mmio_read32(CLINT_MTIME_HI_ADDR);
        lo  = mmio_read32(CLINT_MTIME_LO_ADDR);
        hi1 = mmio_read32(CLINT_MTIME_HI_ADDR);
    } while (hi0 != hi1);
 280:	feb61ae3          	bne	a2,a1,274 <clint_schedule_relative.constprop.0.isra.0+0x10>
/* delta_ticks to the previous mtimecmp instead of "now" to avoid      */
/* slipping.                                                           */
/* ------------------------------------------------------------------ */
static inline uint64_t clint_schedule_relative(uint64_t delta_ticks)
{
    uint64_t deadline = clint_mtime() + delta_ticks;
 284:	00001737          	lui	a4,0x1
 288:	38870713          	addi	a4,a4,904 # 1388 <_data_lma+0x81c>
 28c:	00e78733          	add	a4,a5,a4
 290:	00f737b3          	sltu	a5,a4,a5
 294:	00c787b3          	add	a5,a5,a2
    *(volatile uint32_t *)addr = v;
 298:	420046b7          	lui	a3,0x42004
 29c:	fff00613          	li	a2,-1
 2a0:	00c6a223          	sw	a2,4(a3) # 42004004 <__stack_top+0x21fc4004>
 2a4:	42004637          	lui	a2,0x42004
 2a8:	00e62023          	sw	a4,0(a2) # 42004000 <__stack_top+0x21fc4000>
 2ac:	00f6a223          	sw	a5,4(a3)
    clint_set_mtimecmp(deadline);
    return deadline;
}
 2b0:	00008067          	ret

000002b4 <timer_tick>:
    timer_count++;
 2b4:	20000737          	lui	a4,0x20000
 2b8:	01472783          	lw	a5,20(a4) # 20000014 <timer_count>
 2bc:	00178793          	addi	a5,a5,1
 2c0:	00f72a23          	sw	a5,20(a4)
    clint_schedule_relative(TICK_INTERVAL_TICKS);
 2c4:	fa1ff06f          	j	264 <clint_schedule_relative.constprop.0.isra.0>

000002c8 <main>:
}

int main(void)
{
 2c8:	ff010113          	addi	sp,sp,-16
 2cc:	00112623          	sw	ra,12(sp)
 2d0:	00812423          	sw	s0,8(sp)
 2d4:	00912223          	sw	s1,4(sp)
    bsp_init();
 2d8:	3a8000ef          	jal	680 <bsp_init>
    uart_puts("os_demo boot\n");
 2dc:	00001537          	lui	a0,0x1
 2e0:	a1850513          	addi	a0,a0,-1512 # a18 <uart_printf+0x270>
 2e4:	4a8000ef          	jal	78c <uart_puts>

    bsp_set_timer_handler(timer_tick);
 2e8:	2b400513          	li	a0,692
 2ec:	268000ef          	jal	554 <bsp_set_timer_handler>
    clint_schedule_relative(TICK_INTERVAL_TICKS);
 2f0:	f75ff0ef          	jal	264 <clint_schedule_relative.constprop.0.isra.0>
    bsp_enable_timer_interrupt();
 2f4:	280000ef          	jal	574 <bsp_enable_timer_interrupt>
    bsp_irq_enable();
 2f8:	264000ef          	jal	55c <bsp_irq_enable>

    sched_init();
 2fc:	078000ef          	jal	374 <sched_init>
    if (task_create(task0) < 0 || task_create(task1) < 0) {
 300:	20c00513          	li	a0,524
 304:	084000ef          	jal	388 <task_create>
 308:	04054a63          	bltz	a0,35c <main+0x94>
 30c:	1b000513          	li	a0,432
 310:	078000ef          	jal	388 <task_create>
 314:	04054463          	bltz	a0,35c <main+0x94>
        uart_puts("os_demo: task_create failed\n");
        for (;;) {}
    }

    while (!(task_done[0] && task_done[1])) {
 318:	20000437          	lui	s0,0x20000
 31c:	01040493          	addi	s1,s0,16 # 20000010 <task_done>
 320:	01044783          	lbu	a5,16(s0)
 324:	04078463          	beqz	a5,36c <main+0xa4>
 328:	0014c783          	lbu	a5,1(s1)
 32c:	04078063          	beqz	a5,36c <main+0xa4>
        task_yield();
    }

    bsp_irq_disable();
 330:	238000ef          	jal	568 <bsp_irq_disable>

    uart_printf("os_demo: all tasks finished (ticks=%u)\n", timer_count);
 334:	200007b7          	lui	a5,0x20000
 338:	0147a583          	lw	a1,20(a5) # 20000014 <timer_count>
 33c:	00001537          	lui	a0,0x1
 340:	a4850513          	addi	a0,a0,-1464 # a48 <uart_printf+0x2a0>
 344:	464000ef          	jal	7a8 <uart_printf>
    uart_puts("OS_DEMO_PASS\n");
 348:	00001537          	lui	a0,0x1
 34c:	a7050513          	addi	a0,a0,-1424 # a70 <uart_printf+0x2c8>
 350:	43c000ef          	jal	78c <uart_puts>

    for (;;) {
        __asm__ volatile("wfi");
 354:	10500073          	wfi
    for (;;) {
 358:	ffdff06f          	j	354 <main+0x8c>
        uart_puts("os_demo: task_create failed\n");
 35c:	00001537          	lui	a0,0x1
 360:	a2850513          	addi	a0,a0,-1496 # a28 <uart_printf+0x280>
 364:	428000ef          	jal	78c <uart_puts>
        for (;;) {}
 368:	0000006f          	j	368 <main+0xa0>
        task_yield();
 36c:	08c000ef          	jal	3f8 <task_yield>
 370:	fb1ff06f          	j	320 <main+0x58>

00000374 <sched_init>:
static int                 ntasks;
static int                 cur_task = -1;

void sched_init(void)
{
    ntasks   = 1;
 374:	00100713          	li	a4,1
 378:	80e1aa23          	sw	a4,-2028(gp) # 20000018 <ntasks>
    cur_task = 0;
 37c:	200007b7          	lui	a5,0x20000
 380:	0007a023          	sw	zero,0(a5) # 20000000 <cur_task>
    /* ctx[0] is left zero-initialised; the first task_yield() call
     * snapshots the live callee-saved regs into it before switching.  */
}
 384:	00008067          	ret

00000388 <task_create>:

int task_create(void (*entry)(void))
{
 388:	00050613          	mv	a2,a0
    if (ntasks >= SCHED_MAX_TASKS) {
 38c:	8141a503          	lw	a0,-2028(gp) # 20000018 <ntasks>
 390:	00300713          	li	a4,3
 394:	04a74e63          	blt	a4,a0,3f0 <task_create+0x68>
        return -1;
    }

    int id = ntasks++;
 398:	00150693          	addi	a3,a0,1
 39c:	80d1aa23          	sw	a3,-2028(gp) # 20000018 <ntasks>
    struct sched_ctx *c = &tasks[id];
 3a0:	03800793          	li	a5,56
 3a4:	02f507b3          	mul	a5,a0,a5
 3a8:	20002737          	lui	a4,0x20002
 3ac:	03070593          	addi	a1,a4,48 # 20002030 <tasks>
 3b0:	03070713          	addi	a4,a4,48
 3b4:	00b787b3          	add	a5,a5,a1
 3b8:	03878593          	addi	a1,a5,56
     * irrelevant: task entries take no arguments, and the callee-
     * saved regs don't need a defined value on first entry.  Avoid
     * memset here because we link -nostdlib.                          */
    uint32_t *p = (uint32_t *)c;
    for (unsigned i = 0; i < sizeof(*c) / sizeof(uint32_t); i++) {
        p[i] = 0;
 3bc:	0007a023          	sw	zero,0(a5)
    for (unsigned i = 0; i < sizeof(*c) / sizeof(uint32_t); i++) {
 3c0:	00478793          	addi	a5,a5,4
 3c4:	feb79ce3          	bne	a5,a1,3bc <task_create+0x34>
    }
    c->ra = (uint32_t)(uintptr_t)entry;
 3c8:	03800793          	li	a5,56
 3cc:	02f507b3          	mul	a5,a0,a5
    c->sp = (uint32_t)(uintptr_t)&stacks[id][SCHED_STACK_SIZE];
 3d0:	00b69693          	slli	a3,a3,0xb
    c->ra = (uint32_t)(uintptr_t)entry;
 3d4:	00f707b3          	add	a5,a4,a5
    c->sp = (uint32_t)(uintptr_t)&stacks[id][SCHED_STACK_SIZE];
 3d8:	20000737          	lui	a4,0x20000
 3dc:	03070713          	addi	a4,a4,48 # 20000030 <stacks>
 3e0:	00e686b3          	add	a3,a3,a4
    c->ra = (uint32_t)(uintptr_t)entry;
 3e4:	00c7a023          	sw	a2,0(a5)
    c->sp = (uint32_t)(uintptr_t)&stacks[id][SCHED_STACK_SIZE];
 3e8:	00d7a223          	sw	a3,4(a5)
    return id;
 3ec:	00008067          	ret
        return -1;
 3f0:	fff00513          	li	a0,-1
}
 3f4:	00008067          	ret

000003f8 <task_yield>:

void task_yield(void)
{
    if (ntasks <= 1) return;
 3f8:	8141a683          	lw	a3,-2028(gp) # 20000018 <ntasks>
 3fc:	00100793          	li	a5,1
 400:	02d7dc63          	bge	a5,a3,438 <task_yield+0x40>
    int prev = cur_task;
 404:	20000737          	lui	a4,0x20000
 408:	00072783          	lw	a5,0(a4) # 20000000 <cur_task>
    int next = (cur_task + 1) % ntasks;
    cur_task = next;
    sched_switch(&tasks[prev], &tasks[next]);
 40c:	20002537          	lui	a0,0x20002
 410:	03050513          	addi	a0,a0,48 # 20002030 <tasks>
    int next = (cur_task + 1) % ntasks;
 414:	00178593          	addi	a1,a5,1
 418:	02d5e5b3          	rem	a1,a1,a3
    cur_task = next;
 41c:	00b72023          	sw	a1,0(a4)
    sched_switch(&tasks[prev], &tasks[next]);
 420:	03800713          	li	a4,56
 424:	02e585b3          	mul	a1,a1,a4
 428:	02e787b3          	mul	a5,a5,a4
 42c:	00b505b3          	add	a1,a0,a1
 430:	00f50533          	add	a0,a0,a5
 434:	0080006f          	j	43c <sched_switch>
}
 438:	00008067          	ret

0000043c <sched_switch>:
    .globl   sched_switch
    .type    sched_switch, @function
    .align   2

sched_switch:
    sw   ra,  0(a0)
 43c:	00152023          	sw	ra,0(a0)
    sw   sp,  4(a0)
 440:	00252223          	sw	sp,4(a0)
    sw   s0,  8(a0)
 444:	00852423          	sw	s0,8(a0)
    sw   s1, 12(a0)
 448:	00952623          	sw	s1,12(a0)
    sw   s2, 16(a0)
 44c:	01252823          	sw	s2,16(a0)
    sw   s3, 20(a0)
 450:	01352a23          	sw	s3,20(a0)
    sw   s4, 24(a0)
 454:	01452c23          	sw	s4,24(a0)
    sw   s5, 28(a0)
 458:	01552e23          	sw	s5,28(a0)
    sw   s6, 32(a0)
 45c:	03652023          	sw	s6,32(a0)
    sw   s7, 36(a0)
 460:	03752223          	sw	s7,36(a0)
    sw   s8, 40(a0)
 464:	03852423          	sw	s8,40(a0)
    sw   s9, 44(a0)
 468:	03952623          	sw	s9,44(a0)
    sw   s10,48(a0)
 46c:	03a52823          	sw	s10,48(a0)
    sw   s11,52(a0)
 470:	03b52a23          	sw	s11,52(a0)

    lw   ra,  0(a1)
 474:	0005a083          	lw	ra,0(a1)
    lw   sp,  4(a1)
 478:	0045a103          	lw	sp,4(a1)
    lw   s0,  8(a1)
 47c:	0085a403          	lw	s0,8(a1)
    lw   s1, 12(a1)
 480:	00c5a483          	lw	s1,12(a1)
    lw   s2, 16(a1)
 484:	0105a903          	lw	s2,16(a1)
    lw   s3, 20(a1)
 488:	0145a983          	lw	s3,20(a1)
    lw   s4, 24(a1)
 48c:	0185aa03          	lw	s4,24(a1)
    lw   s5, 28(a1)
 490:	01c5aa83          	lw	s5,28(a1)
    lw   s6, 32(a1)
 494:	0205ab03          	lw	s6,32(a1)
    lw   s7, 36(a1)
 498:	0245ab83          	lw	s7,36(a1)
    lw   s8, 40(a1)
 49c:	0285ac03          	lw	s8,40(a1)
    lw   s9, 44(a1)
 4a0:	02c5ac83          	lw	s9,44(a1)
    lw   s10,48(a1)
 4a4:	0305ad03          	lw	s10,48(a1)
    lw   s11,52(a1)
 4a8:	0345ad83          	lw	s11,52(a1)
    ret
 4ac:	00008067          	ret

000004b0 <default_banner>:

/* ------------------------------------------------------------------ */
/* Panic fallback                                                      */
/* ------------------------------------------------------------------ */
static void default_banner(const struct bsp_trap_frame *f, const char *tag)
{
 4b0:	ff010113          	addi	sp,sp,-16
 4b4:	00812423          	sw	s0,8(sp)
 4b8:	00050413          	mv	s0,a0
    uart_puts("\n[bsp] UNHANDLED TRAP: ");
 4bc:	00001537          	lui	a0,0x1
 4c0:	a8050513          	addi	a0,a0,-1408 # a80 <uart_printf+0x2d8>
{
 4c4:	00112623          	sw	ra,12(sp)
 4c8:	00912223          	sw	s1,4(sp)
 4cc:	00058493          	mv	s1,a1
    uart_puts("\n[bsp] UNHANDLED TRAP: ");
 4d0:	2bc000ef          	jal	78c <uart_puts>
    uart_puts(tag);
 4d4:	00048513          	mv	a0,s1
 4d8:	2b4000ef          	jal	78c <uart_puts>
    uart_printf("  mcause=0x%08x  mepc=0x%08x  mtval=0x%08x  mstatus=0x%08x\n",
 4dc:	08c42703          	lw	a4,140(s0)
 4e0:	08842683          	lw	a3,136(s0)
 4e4:	08042603          	lw	a2,128(s0)
 4e8:	08442583          	lw	a1,132(s0)
 4ec:	00001537          	lui	a0,0x1
 4f0:	a9850513          	addi	a0,a0,-1384 # a98 <uart_printf+0x2f0>
 4f4:	2b4000ef          	jal	7a8 <uart_printf>
                f->mcause, f->mepc, f->mtval, f->mstatus);
    for (;;) {
 4f8:	0000006f          	j	4f8 <default_banner+0x48>

000004fc <default_exception>:
    }
}

static void default_exception(const struct bsp_trap_frame *f)
{
    default_banner(f, "exception");
 4fc:	000015b7          	lui	a1,0x1
{
 500:	ff010113          	addi	sp,sp,-16
    default_banner(f, "exception");
 504:	ad458593          	addi	a1,a1,-1324 # ad4 <uart_printf+0x32c>
{
 508:	00112623          	sw	ra,12(sp)
    default_banner(f, "exception");
 50c:	fa5ff0ef          	jal	4b0 <default_banner>

00000510 <default_soft>:
    mmio_write32(CLINT_MTIMECMP_LO_ADDR, 0xFFFFFFFFu);
    default_banner(f, "unhandled mti");
}

static void default_soft(const struct bsp_trap_frame *f)
{
 510:	ff010113          	addi	sp,sp,-16
 514:	00112623          	sw	ra,12(sp)
 518:	420007b7          	lui	a5,0x42000
    clint_clear_ipi();
    default_banner(f, "unhandled msi");
 51c:	000015b7          	lui	a1,0x1
 520:	0007a023          	sw	zero,0(a5) # 42000000 <__stack_top+0x21fc0000>
 524:	ae058593          	addi	a1,a1,-1312 # ae0 <uart_printf+0x338>
 528:	f89ff0ef          	jal	4b0 <default_banner>

0000052c <default_timer>:
{
 52c:	ff010113          	addi	sp,sp,-16
 530:	00112623          	sw	ra,12(sp)
 534:	420047b7          	lui	a5,0x42004
 538:	fff00713          	li	a4,-1
 53c:	00e7a223          	sw	a4,4(a5) # 42004004 <__stack_top+0x21fc4004>
    default_banner(f, "unhandled mti");
 540:	000015b7          	lui	a1,0x1
 544:	420047b7          	lui	a5,0x42004
 548:	00e7a023          	sw	a4,0(a5) # 42004000 <__stack_top+0x21fc4000>
 54c:	af058593          	addi	a1,a1,-1296 # af0 <uart_printf+0x348>
 550:	f61ff0ef          	jal	4b0 <default_banner>

00000554 <bsp_set_timer_handler>:
}

/* ------------------------------------------------------------------ */
/* Registration API                                                    */
/* ------------------------------------------------------------------ */
void bsp_set_timer_handler(bsp_trap_handler_t h) { timer_handler = h; }
 554:	80a1ae23          	sw	a0,-2020(gp) # 20000020 <timer_handler>
 558:	00008067          	ret

0000055c <bsp_irq_enable>:
}

/* ------------------------------------------------------------------ */
/* Global enable/disable                                               */
/* ------------------------------------------------------------------ */
void bsp_irq_enable(void)  { csr_set(mstatus, MSTATUS_MIE); }
 55c:	00800793          	li	a5,8
 560:	3007a7f3          	csrrs	a5,mstatus,a5
 564:	00008067          	ret

00000568 <bsp_irq_disable>:
void bsp_irq_disable(void) { csr_clear(mstatus, MSTATUS_MIE); }
 568:	00800793          	li	a5,8
 56c:	3007b7f3          	csrrc	a5,mstatus,a5
 570:	00008067          	ret

00000574 <bsp_enable_timer_interrupt>:

void bsp_enable_timer_interrupt(void)    { csr_set(mie, MIE_MTIE); }
 574:	08000793          	li	a5,128
 578:	3047a7f3          	csrrs	a5,mie,a5
 57c:	00008067          	ret

00000580 <bsp_trap_dispatch>:
/* ------------------------------------------------------------------ */
/* Dispatcher.  Called once per trap from trap_entry.S.                */
/* ------------------------------------------------------------------ */
void bsp_trap_dispatch(struct bsp_trap_frame *f)
{
    uint32_t mcause = f->mcause;
 580:	08452783          	lw	a5,132(a0)
{
 584:	00050713          	mv	a4,a0

    if (mcause & MCAUSE_INTERRUPT_BIT) {
 588:	0c07d863          	bgez	a5,658 <bsp_trap_dispatch+0xd8>
        uint32_t code = mcause & MCAUSE_CODE_MASK;
 58c:	00179793          	slli	a5,a5,0x1
 590:	0017d793          	srli	a5,a5,0x1
        switch (code) {
 594:	00700693          	li	a3,7
 598:	02d78663          	beq	a5,a3,5c4 <bsp_trap_dispatch+0x44>
{
 59c:	fe010113          	addi	sp,sp,-32
 5a0:	00112e23          	sw	ra,28(sp)
 5a4:	00812c23          	sw	s0,24(sp)
        switch (code) {
 5a8:	00b00613          	li	a2,11
 5ac:	04c78663          	beq	a5,a2,5f8 <bsp_trap_dispatch+0x78>
 5b0:	00300693          	li	a3,3
 5b4:	02d78263          	beq	a5,a3,5d8 <bsp_trap_dispatch+0x58>
                plic_complete(irq);
            }
            break;
        }
        default:
            default_banner(f, "unknown interrupt cause");
 5b8:	000015b7          	lui	a1,0x1
 5bc:	b2058593          	addi	a1,a1,-1248 # b20 <uart_printf+0x378>
 5c0:	ef1ff0ef          	jal	4b0 <default_banner>
            (timer_handler ? timer_handler : default_timer)(f);
 5c4:	81c1a783          	lw	a5,-2020(gp) # 20000020 <timer_handler>
 5c8:	00079463          	bnez	a5,5d0 <bsp_trap_dispatch+0x50>
 5cc:	52c00793          	li	a5,1324
        }
    } else {
        uint32_t code = mcause & MCAUSE_CODE_MASK;
        bsp_trap_handler_t h =
            (code < EXC_HANDLER_SLOTS) ? exc_handlers[code] : NULL;
        (h ? h : default_exception)(f);
 5d0:	00070513          	mv	a0,a4
 5d4:	0200006f          	j	5f4 <bsp_trap_dispatch+0x74>
            (soft_handler ? soft_handler : default_soft)(f);
 5d8:	8181a783          	lw	a5,-2024(gp) # 2000001c <soft_handler>
 5dc:	00079463          	bnez	a5,5e4 <bsp_trap_dispatch+0x64>
 5e0:	51000793          	li	a5,1296
    }
}
 5e4:	01812403          	lw	s0,24(sp)
 5e8:	01c12083          	lw	ra,28(sp)
            (soft_handler ? soft_handler : default_soft)(f);
 5ec:	00070513          	mv	a0,a4
}
 5f0:	02010113          	addi	sp,sp,32
        (h ? h : default_exception)(f);
 5f4:	00078067          	jr	a5
    return *(volatile uint32_t *)addr;
 5f8:	44200437          	lui	s0,0x44200
 5fc:	00442583          	lw	a1,4(s0) # 44200004 <__stack_top+0x241c0004>
 600:	00440413          	addi	s0,s0,4
            if (irq) {
 604:	02058a63          	beqz	a1,638 <bsp_trap_dispatch+0xb8>
                if (irq < IRQ_HANDLER_SLOTS && irq_handlers[irq])
 608:	04b6e063          	bltu	a3,a1,648 <bsp_trap_dispatch+0xc8>
 60c:	200027b7          	lui	a5,0x20002
 610:	00259713          	slli	a4,a1,0x2
 614:	11078793          	addi	a5,a5,272 # 20002110 <irq_handlers>
 618:	00e787b3          	add	a5,a5,a4
 61c:	0007a783          	lw	a5,0(a5)
 620:	02078463          	beqz	a5,648 <bsp_trap_dispatch+0xc8>
                    irq_handlers[irq](irq);
 624:	00058513          	mv	a0,a1
 628:	00b12623          	sw	a1,12(sp)
 62c:	000780e7          	jalr	a5
    *(volatile uint32_t *)addr = v;
 630:	00c12583          	lw	a1,12(sp)
 634:	00b42023          	sw	a1,0(s0)
}
 638:	01c12083          	lw	ra,28(sp)
 63c:	01812403          	lw	s0,24(sp)
 640:	02010113          	addi	sp,sp,32
 644:	00008067          	ret
    uart_printf("\n[bsp] UNHANDLED PLIC IRQ %u\n", irq);
 648:	00001537          	lui	a0,0x1
 64c:	b0050513          	addi	a0,a0,-1280 # b00 <uart_printf+0x358>
 650:	158000ef          	jal	7a8 <uart_printf>
    for (;;) {}
 654:	0000006f          	j	654 <bsp_trap_dispatch+0xd4>
            (code < EXC_HANDLER_SLOTS) ? exc_handlers[code] : NULL;
 658:	00b00693          	li	a3,11
 65c:	00f6ee63          	bltu	a3,a5,678 <bsp_trap_dispatch+0xf8>
 660:	200026b7          	lui	a3,0x20002
 664:	00279793          	slli	a5,a5,0x2
 668:	13068693          	addi	a3,a3,304 # 20002130 <exc_handlers>
 66c:	00f687b3          	add	a5,a3,a5
 670:	0007a783          	lw	a5,0(a5)
        (h ? h : default_exception)(f);
 674:	f4079ee3          	bnez	a5,5d0 <bsp_trap_dispatch+0x50>
 678:	4fc00793          	li	a5,1276
 67c:	f55ff06f          	j	5d0 <bsp_trap_dispatch+0x50>

00000680 <bsp_init>:
/* ------------------------------------------------------------------ */
void bsp_init(void)
{
    /* mtvec -- direct mode (no vectoring).  Must be 4-byte aligned,   */
    /* which GCC guarantees for a function symbol.                      */
    csr_write(mtvec, (uint32_t)(uintptr_t)bsp_trap_entry);
 680:	07000793          	li	a5,112
 684:	30579073          	csrw	mtvec,a5

    /* Make sure we start with a known mstatus baseline: MPP=M (so      */
    /* mret stays in M-mode), MIE=0 (application opts in later).        */
    csr_write(mstatus, MSTATUS_MPP);
 688:	000027b7          	lui	a5,0x2
 68c:	80078793          	addi	a5,a5,-2048 # 1800 <_data_lma+0xc94>
 690:	30079073          	csrw	mstatus,a5

    /* Silence any stale interrupt enables left over from a previous    */
    /* boot (e.g. warm reset via UART downloader).                      */
    csr_write(mie, 0);
 694:	00000793          	li	a5,0
 698:	30479073          	csrw	mie,a5
    return *(volatile uint32_t *)addr;
 69c:	442007b7          	lui	a5,0x44200
 6a0:	0047a703          	lw	a4,4(a5) # 44200004 <__stack_top+0x241c0004>
 6a4:	00478793          	addi	a5,a5,4

    /* Drain any pending PLIC claim so we don't trip the default_irq    */
    /* fallback on first enable.                                         */
    uint32_t irq = plic_claim();
    if (irq) plic_complete(irq);
 6a8:	00070463          	beqz	a4,6b0 <bsp_init+0x30>
    *(volatile uint32_t *)addr = v;
 6ac:	00e7a023          	sw	a4,0(a5)
 6b0:	420047b7          	lui	a5,0x42004
 6b4:	fff00713          	li	a4,-1
 6b8:	00e7a223          	sw	a4,4(a5) # 42004004 <__stack_top+0x21fc4004>
 6bc:	420047b7          	lui	a5,0x42004
 6c0:	00e7a023          	sw	a4,0(a5) # 42004000 <__stack_top+0x21fc4000>
 6c4:	420007b7          	lui	a5,0x42000
 6c8:	0007a023          	sw	zero,0(a5) # 42000000 <__stack_top+0x21fc0000>
    mmio_write32(CLINT_MTIMECMP_HI_ADDR, 0xFFFFFFFFu);
    mmio_write32(CLINT_MTIMECMP_LO_ADDR, 0xFFFFFFFFu);

    /* Clear any software interrupt left over.                          */
    clint_clear_ipi();
}
 6cc:	00008067          	ret

000006d0 <put_uint>:
 * have to link against the GCC printf.  Newlib's printf pulls in ~15 KB
 * of code on its own, and we need room for the kernel + scheduler.    */
/* ------------------------------------------------------------------ */

static void put_uint(uint32_t val, uint32_t base, int upper_case, int pad_width, char pad_char)
{
 6d0:	fd010113          	addi	sp,sp,-48
    static const char digits_lower[] = "0123456789abcdef";
    static const char digits_upper[] = "0123456789ABCDEF";
    const char *digits = upper_case ? digits_upper : digits_lower;
 6d4:	04060663          	beqz	a2,720 <put_uint+0x50>
 6d8:	00001637          	lui	a2,0x1
 6dc:	b5860613          	addi	a2,a2,-1192 # b58 <digits_upper.1>
    /* 32 bits in base 2 is 32 digits + terminator; base 10 is at most
     * 10 digits.  Use 33 to cover every sensible case.                */
    char buf[33];
    int i = 0;

    if (val == 0) {
 6e0:	04051663          	bnez	a0,72c <put_uint+0x5c>
        buf[i++] = '0';
 6e4:	03000793          	li	a5,48
 6e8:	00f10623          	sb	a5,12(sp)
 6ec:	00100793          	li	a5,1
    int i = 0;
 6f0:	00078613          	mv	a2,a5
            buf[i++] = digits[val % base];
            val /= base;
        }
    }

    for (; i < pad_width; i++) {
 6f4:	06d64863          	blt	a2,a3,764 <put_uint+0x94>
 6f8:	00000713          	li	a4,0
 6fc:	00f6c463          	blt	a3,a5,704 <put_uint+0x34>
 700:	40f68733          	sub	a4,a3,a5
 704:	00e787b3          	add	a5,a5,a4
 708:	430006b7          	lui	a3,0x43000
        buf[i] = pad_char;
    }

    while (i-- > 0) {
 70c:	fff00713          	li	a4,-1
 710:	fff78793          	addi	a5,a5,-1
 714:	06e79263          	bne	a5,a4,778 <put_uint+0xa8>
        uart_putc(buf[i]);
    }
}
 718:	03010113          	addi	sp,sp,48
 71c:	00008067          	ret
    const char *digits = upper_case ? digits_upper : digits_lower;
 720:	00001637          	lui	a2,0x1
 724:	b4460613          	addi	a2,a2,-1212 # b44 <digits_lower.0>
 728:	fb9ff06f          	j	6e0 <put_uint+0x10>
 72c:	00c10813          	addi	a6,sp,12
    int i = 0;
 730:	00000793          	li	a5,0
        while (val != 0 && i < 32) {
 734:	02000313          	li	t1,32
            buf[i++] = digits[val % base];
 738:	02b578b3          	remu	a7,a0,a1
 73c:	00178793          	addi	a5,a5,1
 740:	011608b3          	add	a7,a2,a7
 744:	0008c883          	lbu	a7,0(a7)
 748:	01180023          	sb	a7,0(a6)
            val /= base;
 74c:	00050893          	mv	a7,a0
 750:	02b55533          	divu	a0,a0,a1
        while (val != 0 && i < 32) {
 754:	f8b8eee3          	bltu	a7,a1,6f0 <put_uint+0x20>
 758:	00180813          	addi	a6,a6,1
 75c:	fc679ee3          	bne	a5,t1,738 <put_uint+0x68>
 760:	f91ff06f          	j	6f0 <put_uint+0x20>
        buf[i] = pad_char;
 764:	00c10593          	addi	a1,sp,12
 768:	00c585b3          	add	a1,a1,a2
 76c:	00e58023          	sb	a4,0(a1)
    for (; i < pad_width; i++) {
 770:	00160613          	addi	a2,a2,1
 774:	f81ff06f          	j	6f4 <put_uint+0x24>
        uart_putc(buf[i]);
 778:	00c10613          	addi	a2,sp,12
 77c:	00f60633          	add	a2,a2,a5
    mmio_write32(UART_DATA_REG, (uint8_t)c);
 780:	00064603          	lbu	a2,0(a2)
 784:	00c6a023          	sw	a2,0(a3) # 43000000 <__stack_top+0x22fc0000>
}
 788:	f89ff06f          	j	710 <put_uint+0x40>

0000078c <uart_puts>:
 78c:	43000737          	lui	a4,0x43000
    while (*s) {
 790:	00054783          	lbu	a5,0(a0)
 794:	00079463          	bnez	a5,79c <uart_puts+0x10>
}
 798:	00008067          	ret
        uart_putc(*s++);
 79c:	00150513          	addi	a0,a0,1
 7a0:	00f72023          	sw	a5,0(a4) # 43000000 <__stack_top+0x22fc0000>
}
 7a4:	fedff06f          	j	790 <uart_puts+0x4>

000007a8 <uart_printf>:
        put_uint((uint32_t)val, 10, 0, pad_width, pad_char);
    }
}

int uart_printf(const char *fmt, ...)
{
 7a8:	fb010113          	addi	sp,sp,-80
 7ac:	04f12223          	sw	a5,68(sp)
    va_list ap;
    va_start(ap, fmt);
 7b0:	03410793          	addi	a5,sp,52
{
 7b4:	02812423          	sw	s0,40(sp)
 7b8:	02912223          	sw	s1,36(sp)
 7bc:	03212023          	sw	s2,32(sp)
 7c0:	01312e23          	sw	s3,28(sp)
 7c4:	01412c23          	sw	s4,24(sp)
 7c8:	01512a23          	sw	s5,20(sp)
 7cc:	01612823          	sw	s6,16(sp)
 7d0:	02112623          	sw	ra,44(sp)
 7d4:	00050413          	mv	s0,a0
 7d8:	02b12a23          	sw	a1,52(sp)
 7dc:	02c12c23          	sw	a2,56(sp)
 7e0:	02d12e23          	sw	a3,60(sp)
 7e4:	04e12023          	sw	a4,64(sp)
 7e8:	05012423          	sw	a6,72(sp)
 7ec:	05112623          	sw	a7,76(sp)
    va_start(ap, fmt);
 7f0:	00f12623          	sw	a5,12(sp)

    int pad_width;
    char pad_char;

    for (const char *p = fmt; *p; p++) {
        if (*p != '%') {
 7f4:	02500993          	li	s3,37
        pad_char  = ' ';

        /* Parse the (intentionally tiny) flag/width syntax:
         *   '0' -> pad with '0', then digits
         *   digits -> zero-extended minimum field width            */
        if (*p == '0') {
 7f8:	03000a13          	li	s4,48
            pad_char = '0';
            p++;
        }
        while (*p >= '0' && *p <= '9') {
 7fc:	00900a93          	li	s5,9
            pad_width = pad_width * 10 + (*p - '0');
 800:	00a00b13          	li	s6,10
            p++;
        }

        switch (*p) {
 804:	06900493          	li	s1,105
 808:	07500913          	li	s2,117
    for (const char *p = fmt; *p; p++) {
 80c:	00044783          	lbu	a5,0(s0)
 810:	02079863          	bnez	a5,840 <uart_printf+0x98>
    }

done:
    va_end(ap);
    return 0;
}
 814:	02c12083          	lw	ra,44(sp)
 818:	02812403          	lw	s0,40(sp)
 81c:	02412483          	lw	s1,36(sp)
 820:	02012903          	lw	s2,32(sp)
 824:	01c12983          	lw	s3,28(sp)
 828:	01812a03          	lw	s4,24(sp)
 82c:	01412a83          	lw	s5,20(sp)
 830:	01012b03          	lw	s6,16(sp)
 834:	00000513          	li	a0,0
 838:	05010113          	addi	sp,sp,80
 83c:	00008067          	ret
        if (*p != '%') {
 840:	01378a63          	beq	a5,s3,854 <uart_printf+0xac>
 844:	43000737          	lui	a4,0x43000
 848:	00f72023          	sw	a5,0(a4) # 43000000 <__stack_top+0x22fc0000>
    for (const char *p = fmt; *p; p++) {
 84c:	00140413          	addi	s0,s0,1
 850:	fbdff06f          	j	80c <uart_printf+0x64>
        if (*p == '0') {
 854:	00144703          	lbu	a4,1(s0)
 858:	07471063          	bne	a4,s4,8b8 <uart_printf+0x110>
            p++;
 85c:	00240413          	addi	s0,s0,2
        pad_char  = ' ';
 860:	00000693          	li	a3,0
 864:	0100006f          	j	874 <uart_printf+0xcc>
            pad_width = pad_width * 10 + (*p - '0');
 868:	036686b3          	mul	a3,a3,s6
            p++;
 86c:	00140413          	addi	s0,s0,1
            pad_width = pad_width * 10 + (*p - '0');
 870:	00d606b3          	add	a3,a2,a3
        while (*p >= '0' && *p <= '9') {
 874:	00044783          	lbu	a5,0(s0)
 878:	fd078613          	addi	a2,a5,-48
 87c:	0ff67593          	zext.b	a1,a2
 880:	febaf4e3          	bgeu	s5,a1,868 <uart_printf+0xc0>
        switch (*p) {
 884:	04978863          	beq	a5,s1,8d4 <uart_printf+0x12c>
 888:	08f4e063          	bltu	s1,a5,908 <uart_printf+0x160>
 88c:	05800613          	li	a2,88
 890:	10c78a63          	beq	a5,a2,9a4 <uart_printf+0x1fc>
 894:	02f66863          	bltu	a2,a5,8c4 <uart_printf+0x11c>
 898:	f6078ee3          	beqz	a5,814 <uart_printf+0x6c>
 89c:	02500713          	li	a4,37
 8a0:	fae782e3          	beq	a5,a4,844 <uart_printf+0x9c>
 8a4:	02500713          	li	a4,37
 8a8:	430007b7          	lui	a5,0x43000
 8ac:	00e7a023          	sw	a4,0(a5) # 43000000 <__stack_top+0x22fc0000>
    mmio_write32(UART_DATA_REG, (uint8_t)c);
 8b0:	00044703          	lbu	a4,0(s0)
 8b4:	0c00006f          	j	974 <uart_printf+0x1cc>
        p++;
 8b8:	00140413          	addi	s0,s0,1
        pad_char  = ' ';
 8bc:	02000713          	li	a4,32
 8c0:	fa1ff06f          	j	860 <uart_printf+0xb8>
        switch (*p) {
 8c4:	06300613          	li	a2,99
 8c8:	08c78c63          	beq	a5,a2,960 <uart_printf+0x1b8>
 8cc:	06400613          	li	a2,100
 8d0:	fcc79ae3          	bne	a5,a2,8a4 <uart_printf+0xfc>
            put_int(va_arg(ap, int32_t), pad_width, pad_char);
 8d4:	00c12783          	lw	a5,12(sp)
 8d8:	0007a503          	lw	a0,0(a5)
 8dc:	00478613          	addi	a2,a5,4
 8e0:	00c12623          	sw	a2,12(sp)
    if (val < 0) {
 8e4:	08055c63          	bgez	a0,97c <uart_printf+0x1d4>
 8e8:	02d00613          	li	a2,45
 8ec:	430007b7          	lui	a5,0x43000
 8f0:	00c7a023          	sw	a2,0(a5) # 43000000 <__stack_top+0x22fc0000>
        put_uint((uint32_t)(-(int64_t)val), 10, 0, pad_width, pad_char);
 8f4:	00a00593          	li	a1,10
 8f8:	00000613          	li	a2,0
 8fc:	40a00533          	neg	a0,a0
            put_uint((uint32_t)(uintptr_t)va_arg(ap, void *), 16, 0, 8, '0');
 900:	dd1ff0ef          	jal	6d0 <put_uint>
            break;
 904:	f49ff06f          	j	84c <uart_printf+0xa4>
        switch (*p) {
 908:	09278063          	beq	a5,s2,988 <uart_printf+0x1e0>
 90c:	02f96c63          	bltu	s2,a5,944 <uart_printf+0x19c>
 910:	07000713          	li	a4,112
 914:	0ae78463          	beq	a5,a4,9bc <uart_printf+0x214>
 918:	07300713          	li	a4,115
 91c:	f8e794e3          	bne	a5,a4,8a4 <uart_printf+0xfc>
            const char *s = va_arg(ap, const char *);
 920:	00c12783          	lw	a5,12(sp)
 924:	0007a503          	lw	a0,0(a5)
 928:	00478713          	addi	a4,a5,4
 92c:	00e12623          	sw	a4,12(sp)
            if (!s) s = "(null)";
 930:	00051663          	bnez	a0,93c <uart_printf+0x194>
 934:	00001537          	lui	a0,0x1
 938:	b3850513          	addi	a0,a0,-1224 # b38 <uart_printf+0x390>
            uart_puts(s);
 93c:	e51ff0ef          	jal	78c <uart_puts>
            break;
 940:	f0dff06f          	j	84c <uart_printf+0xa4>
        switch (*p) {
 944:	07800613          	li	a2,120
 948:	f4c79ee3          	bne	a5,a2,8a4 <uart_printf+0xfc>
            put_uint(va_arg(ap, uint32_t), 16, 0, pad_width, pad_char);
 94c:	00c12783          	lw	a5,12(sp)
 950:	00478613          	addi	a2,a5,4
 954:	00c12623          	sw	a2,12(sp)
            put_uint((uint32_t)(uintptr_t)va_arg(ap, void *), 16, 0, 8, '0');
 958:	00000613          	li	a2,0
 95c:	0580006f          	j	9b4 <uart_printf+0x20c>
            uart_putc((char)va_arg(ap, int));
 960:	00c12783          	lw	a5,12(sp)
 964:	00478713          	addi	a4,a5,4
 968:	00e12623          	sw	a4,12(sp)
    mmio_write32(UART_DATA_REG, (uint8_t)c);
 96c:	0007c703          	lbu	a4,0(a5)
 970:	430007b7          	lui	a5,0x43000
 974:	00e7a023          	sw	a4,0(a5) # 43000000 <__stack_top+0x22fc0000>
}
 978:	ed5ff06f          	j	84c <uart_printf+0xa4>
        put_uint((uint32_t)val, 10, 0, pad_width, pad_char);
 97c:	00000613          	li	a2,0
 980:	00a00593          	li	a1,10
 984:	f7dff06f          	j	900 <uart_printf+0x158>
            put_uint(va_arg(ap, uint32_t), 10, 0, pad_width, pad_char);
 988:	00c12783          	lw	a5,12(sp)
 98c:	00a00593          	li	a1,10
 990:	00478613          	addi	a2,a5,4
 994:	00c12623          	sw	a2,12(sp)
 998:	00000613          	li	a2,0
            put_uint((uint32_t)(uintptr_t)va_arg(ap, void *), 16, 0, 8, '0');
 99c:	0007a503          	lw	a0,0(a5)
 9a0:	f61ff06f          	j	900 <uart_printf+0x158>
            put_uint(va_arg(ap, uint32_t), 16, 1, pad_width, pad_char);
 9a4:	00c12783          	lw	a5,12(sp)
 9a8:	00478613          	addi	a2,a5,4
 9ac:	00c12623          	sw	a2,12(sp)
 9b0:	00100613          	li	a2,1
            put_uint((uint32_t)(uintptr_t)va_arg(ap, void *), 16, 0, 8, '0');
 9b4:	01000593          	li	a1,16
 9b8:	fe5ff06f          	j	99c <uart_printf+0x1f4>
            uart_puts("0x");
 9bc:	00001537          	lui	a0,0x1
 9c0:	b4050513          	addi	a0,a0,-1216 # b40 <uart_printf+0x398>
 9c4:	dc9ff0ef          	jal	78c <uart_puts>
            put_uint((uint32_t)(uintptr_t)va_arg(ap, void *), 16, 0, 8, '0');
 9c8:	00c12783          	lw	a5,12(sp)
 9cc:	00800693          	li	a3,8
 9d0:	00478713          	addi	a4,a5,4
 9d4:	00e12623          	sw	a4,12(sp)
 9d8:	03000713          	li	a4,48
 9dc:	f7dff06f          	j	958 <uart_printf+0x1b0>

Disassembly of section .rodata:

000009e0 <digits_lower.0-0x164>:
 9e0:	7361745b          	.insn	4, 0x7361745b
 9e4:	205d316b          	.insn	4, 0x205d316b
 9e8:	7469                	.insn	2, 0x7469
 9ea:	7265                	.insn	2, 0x7265
 9ec:	253d                	.insn	2, 0x253d
 9ee:	2064                	.insn	2, 0x2064
 9f0:	6974                	.insn	2, 0x6974
 9f2:	253d6b63          	bltu	s10,s3,c48 <_data_lma+0xdc>
 9f6:	0a75                	.insn	2, 0x0a75
 9f8:	0000                	.insn	2, 0x
 9fa:	0000                	.insn	2, 0x
 9fc:	7361745b          	.insn	4, 0x7361745b
 a00:	205d306b          	.insn	4, 0x205d306b
 a04:	7469                	.insn	2, 0x7469
 a06:	7265                	.insn	2, 0x7265
 a08:	253d                	.insn	2, 0x253d
 a0a:	2064                	.insn	2, 0x2064
 a0c:	6974                	.insn	2, 0x6974
 a0e:	253d6b63          	bltu	s10,s3,c64 <_data_lma+0xf8>
 a12:	0a75                	.insn	2, 0x0a75
 a14:	0000                	.insn	2, 0x
 a16:	0000                	.insn	2, 0x
 a18:	645f736f          	jal	t1,f885c <__stack_size+0xf085c>
 a1c:	6d65                	.insn	2, 0x6d65
 a1e:	6f62206f          	j	23114 <__stack_size+0x1b114>
 a22:	000a746f          	jal	s0,a7a22 <__stack_size+0x9fa22>
 a26:	0000                	.insn	2, 0x
 a28:	645f736f          	jal	t1,f886c <__stack_size+0xf086c>
 a2c:	6d65                	.insn	2, 0x6d65
 a2e:	74203a6f          	jal	s4,4170 <_data_lma+0x3604>
 a32:	7361                	.insn	2, 0x7361
 a34:	72635f6b          	.insn	4, 0x72635f6b
 a38:	6165                	.insn	2, 0x6165
 a3a:	6574                	.insn	2, 0x6574
 a3c:	6620                	.insn	2, 0x6620
 a3e:	6961                	.insn	2, 0x6961
 a40:	656c                	.insn	2, 0x656c
 a42:	0a64                	.insn	2, 0x0a64
 a44:	0000                	.insn	2, 0x
 a46:	0000                	.insn	2, 0x
 a48:	645f736f          	jal	t1,f888c <__stack_size+0xf088c>
 a4c:	6d65                	.insn	2, 0x6d65
 a4e:	61203a6f          	jal	s4,4060 <_data_lma+0x34f4>
 a52:	6c6c                	.insn	2, 0x6c6c
 a54:	7420                	.insn	2, 0x7420
 a56:	7361                	.insn	2, 0x7361
 a58:	6620736b          	.insn	4, 0x6620736b
 a5c:	6e69                	.insn	2, 0x6e69
 a5e:	7369                	.insn	2, 0x7369
 a60:	6568                	.insn	2, 0x6568
 a62:	2064                	.insn	2, 0x2064
 a64:	7428                	.insn	2, 0x7428
 a66:	6369                	.insn	2, 0x6369
 a68:	253d736b          	.insn	4, 0x253d736b
 a6c:	2975                	.insn	2, 0x2975
 a6e:	000a                	.insn	2, 0x000a
 a70:	445f534f          	.insn	4, 0x445f534f
 a74:	4d45                	.insn	2, 0x4d45
 a76:	41505f4f          	.insn	4, 0x41505f4f
 a7a:	000a5353          	.insn	4, 0x000a5353
 a7e:	0000                	.insn	2, 0x
 a80:	5b0a                	.insn	2, 0x5b0a
 a82:	7362                	.insn	2, 0x7362
 a84:	5d70                	.insn	2, 0x5d70
 a86:	5520                	.insn	2, 0x5520
 a88:	484e                	.insn	2, 0x484e
 a8a:	4e41                	.insn	2, 0x4e41
 a8c:	4c44                	.insn	2, 0x4c44
 a8e:	4445                	.insn	2, 0x4445
 a90:	5420                	.insn	2, 0x5420
 a92:	4152                	.insn	2, 0x4152
 a94:	3a50                	.insn	2, 0x3a50
 a96:	0020                	.insn	2, 0x0020
 a98:	2020                	.insn	2, 0x2020
 a9a:	636d                	.insn	2, 0x636d
 a9c:	7561                	.insn	2, 0x7561
 a9e:	303d6573          	csrrsi	a0,mideleg,26
 aa2:	2578                	.insn	2, 0x2578
 aa4:	3830                	.insn	2, 0x3830
 aa6:	2078                	.insn	2, 0x2078
 aa8:	6d20                	.insn	2, 0x6d20
 aaa:	7065                	.insn	2, 0x7065
 aac:	78303d63          	.insn	4, 0x78303d63
 ab0:	3025                	.insn	2, 0x3025
 ab2:	7838                	.insn	2, 0x7838
 ab4:	2020                	.insn	2, 0x2020
 ab6:	746d                	.insn	2, 0x746d
 ab8:	6176                	.insn	2, 0x6176
 aba:	3d6c                	.insn	2, 0x3d6c
 abc:	7830                	.insn	2, 0x7830
 abe:	3025                	.insn	2, 0x3025
 ac0:	7838                	.insn	2, 0x7838
 ac2:	2020                	.insn	2, 0x2020
 ac4:	736d                	.insn	2, 0x736d
 ac6:	6174                	.insn	2, 0x6174
 ac8:	7574                	.insn	2, 0x7574
 aca:	78303d73          	csrrc	s10,0x783,zero
 ace:	3025                	.insn	2, 0x3025
 ad0:	7838                	.insn	2, 0x7838
 ad2:	000a                	.insn	2, 0x000a
 ad4:	7865                	.insn	2, 0x7865
 ad6:	74706563          	bltu	zero,t2,1220 <_data_lma+0x6b4>
 ada:	6f69                	.insn	2, 0x6f69
 adc:	006e                	.insn	2, 0x006e
 ade:	0000                	.insn	2, 0x
 ae0:	6e75                	.insn	2, 0x6e75
 ae2:	6168                	.insn	2, 0x6168
 ae4:	646e                	.insn	2, 0x646e
 ae6:	656c                	.insn	2, 0x656c
 ae8:	2064                	.insn	2, 0x2064
 aea:	736d                	.insn	2, 0x736d
 aec:	0069                	.insn	2, 0x0069
 aee:	0000                	.insn	2, 0x
 af0:	6e75                	.insn	2, 0x6e75
 af2:	6168                	.insn	2, 0x6168
 af4:	646e                	.insn	2, 0x646e
 af6:	656c                	.insn	2, 0x656c
 af8:	2064                	.insn	2, 0x2064
 afa:	746d                	.insn	2, 0x746d
 afc:	0069                	.insn	2, 0x0069
 afe:	0000                	.insn	2, 0x
 b00:	5b0a                	.insn	2, 0x5b0a
 b02:	7362                	.insn	2, 0x7362
 b04:	5d70                	.insn	2, 0x5d70
 b06:	5520                	.insn	2, 0x5520
 b08:	484e                	.insn	2, 0x484e
 b0a:	4e41                	.insn	2, 0x4e41
 b0c:	4c44                	.insn	2, 0x4c44
 b0e:	4445                	.insn	2, 0x4445
 b10:	5020                	.insn	2, 0x5020
 b12:	494c                	.insn	2, 0x494c
 b14:	52492043          	.insn	4, 0x52492043
 b18:	2051                	.insn	2, 0x2051
 b1a:	7525                	.insn	2, 0x7525
 b1c:	000a                	.insn	2, 0x000a
 b1e:	0000                	.insn	2, 0x
 b20:	6e75                	.insn	2, 0x6e75
 b22:	776f6e6b          	.insn	4, 0x776f6e6b
 b26:	206e                	.insn	2, 0x206e
 b28:	6e69                	.insn	2, 0x6e69
 b2a:	6574                	.insn	2, 0x6574
 b2c:	7272                	.insn	2, 0x7272
 b2e:	7075                	.insn	2, 0x7075
 b30:	2074                	.insn	2, 0x2074
 b32:	73756163          	bltu	a0,s7,1254 <_data_lma+0x6e8>
 b36:	0065                	.insn	2, 0x0065
 b38:	6e28                	.insn	2, 0x6e28
 b3a:	6c75                	.insn	2, 0x6c75
 b3c:	296c                	.insn	2, 0x296c
 b3e:	0000                	.insn	2, 0x
 b40:	7830                	.insn	2, 0x7830
	...

00000b44 <digits_lower.0>:
    static const char digits_lower[] = "0123456789abcdef";
 b44:	3130                	.insn	2, 0x3130
 b46:	3332                	.insn	2, 0x3332
 b48:	3534                	.insn	2, 0x3534
 b4a:	3736                	.insn	2, 0x3736
 b4c:	3938                	.insn	2, 0x3938
 b4e:	6261                	.insn	2, 0x6261
 b50:	66656463          	bltu	a0,t1,11b8 <_data_lma+0x64c>
 b54:	0000                	.insn	2, 0x
	...

00000b58 <digits_upper.1>:
    static const char digits_upper[] = "0123456789ABCDEF";
 b58:	3130                	.insn	2, 0x3130
 b5a:	3332                	.insn	2, 0x3332
 b5c:	3534                	.insn	2, 0x3534
 b5e:	3736                	.insn	2, 0x3736
 b60:	3938                	.insn	2, 0x3938
 b62:	4241                	.insn	2, 0x4241
 b64:	46454443          	.insn	4, 0x46454443
	...

Disassembly of section .data:

20000000 <cur_task>:
20000000:	ffff                	.insn	2, 0xffff
20000002:	ffff                	.insn	2, 0xffff

Disassembly of section .riscv.attributes:

00000000 <.riscv.attributes>:
    la      gp, __global_pointer$
   0:	4241                	.insn	2, 0x4241
   2:	0000                	.insn	2, 0x
   4:	7200                	.insn	2, 0x7200
   6:	7369                	.insn	2, 0x7369
    la      sp, __stack_top
   8:	01007663          	bgeu	zero,a6,14 <_start+0x14>
   c:	0038                	.insn	2, 0x0038
   e:	0000                	.insn	2, 0x
    la      a0, _data_lma
  10:	1004                	.insn	2, 0x1004
  12:	7205                	.insn	2, 0x7205
  14:	3376                	.insn	2, 0x3376
  16:	6932                	.insn	2, 0x6932
    la      a1, _data
  18:	7032                	.insn	2, 0x7032
  1a:	5f31                	.insn	2, 0x5f31
  1c:	326d                	.insn	2, 0x326d
  1e:	3070                	.insn	2, 0x3070
    la      a2, _edata
  20:	7a5f 6369 7273      	.insn	6, 0x727363697a5f
  26:	7032                	.insn	2, 0x7032
    bgeu    a1, a2, 2f
  28:	5f30                	.insn	2, 0x5f30
  2a:	697a                	.insn	2, 0x697a
    lw      t0, 0(a0)
  2c:	6566                	.insn	2, 0x6566
  2e:	636e                	.insn	2, 0x636e
    sw      t0, 0(a1)
  30:	6965                	.insn	2, 0x6965
  32:	7032                	.insn	2, 0x7032
    addi    a0, a0, 4
  34:	5f30                	.insn	2, 0x5f30
  36:	6d7a                	.insn	2, 0x6d7a
    addi    a1, a1, 4
  38:	756d                	.insn	2, 0x756d
  3a:	316c                	.insn	2, 0x316c
    bltu    a1, a2, 1b
  3c:	3070                	.insn	2, 0x3070
  3e:	0800                	.insn	2, 0x0800
    la      a0, _fbss
  40:	0a01                	.insn	2, 0x0a01
  42:	Address 0x42 is out of bounds.


Disassembly of section .debug_info:

00000000 <.debug_info>:
    la      gp, __global_pointer$
       0:	05ad                	.insn	2, 0x05ad
       2:	0000                	.insn	2, 0x
       4:	0005                	.insn	2, 0x0005
       6:	0401                	.insn	2, 0x0401
    la      sp, __stack_top
       8:	0000                	.insn	2, 0x
       a:	0000                	.insn	2, 0x
       c:	021f 0001 1d00      	.insn	6, 0x1d000001021f
    la      a0, _data_lma
      12:	0029                	.insn	2, 0x0029
      14:	0000                	.insn	2, 0x
      16:	0000                	.insn	2, 0x
    la      a1, _data
      18:	0000                	.insn	2, 0x
      1a:	0042                	.insn	2, 0x0042
	...
    la      a2, _edata
      24:	0000                	.insn	2, 0x
      26:	0802                	.insn	2, 0x0802
    bgeu    a1, a2, 2f
      28:	0001ca07          	.insn	4, 0x0001ca07
    lw      t0, 0(a0)
      2c:	0200                	.insn	2, 0x0200
      2e:	0704                	.insn	2, 0x0704
    sw      t0, 0(a1)
      30:	01d4                	.insn	2, 0x01d4
      32:	0000                	.insn	2, 0x
    addi    a0, a0, 4
      34:	0102                	.insn	2, 0x0102
      36:	9b06                	.insn	2, 0x9b06
    addi    a1, a1, 4
      38:	0000                	.insn	2, 0x
      3a:	0200                	.insn	2, 0x0200
    bltu    a1, a2, 1b
      3c:	0502                	.insn	2, 0x0502
      3e:	0236                	.insn	2, 0x0236
    la      a0, _fbss
      40:	0000                	.insn	2, 0x
      42:	0402                	.insn	2, 0x0402
      44:	1805                	.insn	2, 0x1805
      46:	0002                	.insn	2, 0x0002
    la      a1, _end
      48:	0200                	.insn	2, 0x0200
      4a:	0508                	.insn	2, 0x0508
      4c:	00000213          	li	tp,0
    bgeu    a0, a1, 2f
      50:	0001e107          	.insn	4, 0x0001e107
    sw      zero, 0(a0)
      54:	0400                	.insn	2, 0x0400
      56:	182e                	.insn	2, 0x182e
    addi    a0, a0, 4
      58:	0061                	.insn	2, 0x0061
      5a:	0000                	.insn	2, 0x
    bltu    a0, a1, 1b
      5c:	500c                	.insn	2, 0x500c
      5e:	0000                	.insn	2, 0x
    call    main
      60:	0200                	.insn	2, 0x0200
      62:	0801                	.insn	2, 0x0801
    j       .L_halt
      64:	0099                	.insn	2, 0x0099
      66:	0000                	.insn	2, 0x
      68:	0202                	.insn	2, 0x0202
      6a:	0000b407          	.insn	4, 0xb407
      6e:	0700                	.insn	2, 0x0700
    addi    sp, sp, -FRAME_SIZE
      70:	0248                	.insn	2, 0x0248
      72:	0000                	.insn	2, 0x
    sw      x1,  OFF_X(1)(sp)
      74:	3404                	.insn	2, 0x3404
      76:	8019                	.insn	2, 0x8019
    sw      x2,  OFF_X(2)(sp)            /* original sp is sp+FRAME_SIZE */
      78:	0000                	.insn	2, 0x
      7a:	0c00                	.insn	2, 0x0c00
    sw      x3,  OFF_X(3)(sp)
      7c:	0000006f          	j	7c <bsp_trap_entry+0xc>
    sw      x4,  OFF_X(4)(sp)
      80:	0402                	.insn	2, 0x0402
      82:	0001cf07          	.insn	4, 0x0001cf07
    sw      x5,  OFF_X(5)(sp)
      86:	0700                	.insn	2, 0x0700
    sw      x6,  OFF_X(6)(sp)
      88:	005d                	.insn	2, 0x005d
      8a:	0000                	.insn	2, 0x
    sw      x7,  OFF_X(7)(sp)
      8c:	3704                	.insn	2, 0x3704
      8e:	2619                	.insn	2, 0x2619
    sw      x8,  OFF_X(8)(sp)
      90:	0000                	.insn	2, 0x
      92:	2000                	.insn	2, 0x2000
    sw      x9,  OFF_X(9)(sp)
      94:	0504                	.insn	2, 0x0504
      96:	6e69                	.insn	2, 0x6e69
    sw      x10, OFF_X(10)(sp)
      98:	0074                	.insn	2, 0x0074
      9a:	00003007          	.insn	4, 0x3007
    sw      x11, OFF_X(11)(sp)
      9e:	0400                	.insn	2, 0x0400
    sw      x12, OFF_X(12)(sp)
      a0:	1a56                	.insn	2, 0x1a56
      a2:	002d                	.insn	2, 0x002d
    sw      x13, OFF_X(13)(sp)
      a4:	0000                	.insn	2, 0x
      a6:	f321                	.insn	2, 0xf321
    sw      x14, OFF_X(14)(sp)
      a8:	0000                	.insn	2, 0x
      aa:	9000                	.insn	2, 0x9000
    sw      x15, OFF_X(15)(sp)
      ac:	2605                	.insn	2, 0x2605
      ae:	eb08                	.insn	2, 0xeb08
    sw      x16, OFF_X(16)(sp)
      b0:	0000                	.insn	2, 0x
      b2:	2200                	.insn	2, 0x2200
    sw      x17, OFF_X(17)(sp)
      b4:	0078                	.insn	2, 0x0078
      b6:	2705                	.insn	2, 0x2705
    sw      x18, OFF_X(18)(sp)
      b8:	f00e                	.insn	2, 0xf00e
      ba:	0000                	.insn	2, 0x
    sw      x19, OFF_X(19)(sp)
      bc:	0000                	.insn	2, 0x
      be:	b109                	.insn	2, 0xb109
    sw      x20, OFF_X(20)(sp)
      c0:	0001                	.insn	2, 0x0001
      c2:	2800                	.insn	2, 0x2800
    sw      x21, OFF_X(21)(sp)
      c4:	0000006f          	j	c4 <bsp_trap_entry+0x54>
    sw      x22, OFF_X(22)(sp)
      c8:	0980                	.insn	2, 0x0980
      ca:	00ad                	.insn	2, 0x00ad
    sw      x23, OFF_X(23)(sp)
      cc:	0000                	.insn	2, 0x
      ce:	6f29                	.insn	2, 0x6f29
    sw      x24, OFF_X(24)(sp)
      d0:	0000                	.insn	2, 0x
      d2:	8400                	.insn	2, 0x8400
    sw      x25, OFF_X(25)(sp)
      d4:	1f09                	.insn	2, 0x1f09
      d6:	0000                	.insn	2, 0x
    sw      x26, OFF_X(26)(sp)
      d8:	2a00                	.insn	2, 0x2a00
      da:	0000006f          	j	da <bsp_trap_entry+0x6a>
    sw      x27, OFF_X(27)(sp)
      de:	0988                	.insn	2, 0x0988
    sw      x28, OFF_X(28)(sp)
      e0:	0240                	.insn	2, 0x0240
      e2:	0000                	.insn	2, 0x
    sw      x29, OFF_X(29)(sp)
      e4:	00006f2b          	.insn	4, 0x6f2b
    sw      x30, OFF_X(30)(sp)
      e8:	8c00                	.insn	2, 0x8c00
      ea:	1200                	.insn	2, 0x1200
    sw      x31, OFF_X(31)(sp)
      ec:	00a6                	.insn	2, 0x00a6
      ee:	0000                	.insn	2, 0x
    addi    t0, sp, FRAME_SIZE
      f0:	00006f13          	ori	t5,zero,0
    sw      t0, OFF_X(2)(sp)
      f4:	0000                	.insn	2, 0x
      f6:	0001                	.insn	2, 0x0001
    csrr    t0, mepc
      f8:	1400                	.insn	2, 0x1400
      fa:	002d                	.insn	2, 0x002d
    sw      t0, OFF_MEPC(sp)
      fc:	0000                	.insn	2, 0x
      fe:	001f 0c07 0000      	.insn	6, 0x0c07001f
    sw      t0, OFF_MCAUSE(sp)
     104:	0500                	.insn	2, 0x0500
     106:	102e                	.insn	2, 0x102e
    csrr    t0, mtval
     108:	010c                	.insn	2, 0x010c
     10a:	0000                	.insn	2, 0x
    sw      t0, OFF_MTVAL(sp)
     10c:	110a                	.insn	2, 0x110a
     10e:	0001                	.insn	2, 0x0001
    csrr    t0, mstatus
     110:	2300                	.insn	2, 0x2300
     112:	011c                	.insn	2, 0x011c
    sw      t0, OFF_MSTATUS(sp)
     114:	0000                	.insn	2, 0x
     116:	1c08                	.insn	2, 0x1c08
    mv      a0, sp
     118:	0001                	.insn	2, 0x0001
     11a:	0000                	.insn	2, 0x
    call    bsp_trap_dispatch
     11c:	eb0a                	.insn	2, 0xeb0a
     11e:	0000                	.insn	2, 0x
    lw      t0, OFF_MEPC(sp)
     120:	1500                	.insn	2, 0x1500
     122:	000000c7          	.insn	4, 0x00c7
    csrw    mepc, t0
     126:	7b2c                	.insn	2, 0x7b2c
    lw      t0, OFF_MSTATUS(sp)
     128:	0000                	.insn	2, 0x
     12a:	0500                	.insn	2, 0x0500
    csrw    mstatus, t0
     12c:	00001403          	lh	s0,0(zero) # 0 <_start>
    lw      x1,  OFF_X(1)(sp)
     130:	1320                	.insn	2, 0x1320
     132:	005c                	.insn	2, 0x005c
    lw      x3,  OFF_X(3)(sp)
     134:	0000                	.insn	2, 0x
     136:	0141                	.insn	2, 0x0141
    lw      x4,  OFF_X(4)(sp)
     138:	0000                	.insn	2, 0x
     13a:	2d14                	.insn	2, 0x2d14
    lw      x5,  OFF_X(5)(sp)
     13c:	0000                	.insn	2, 0x
     13e:	0100                	.insn	2, 0x0100
    lw      x6,  OFF_X(6)(sp)
     140:	0c00                	.insn	2, 0x0c00
     142:	0131                	.insn	2, 0x0131
    lw      x7,  OFF_X(7)(sp)
     144:	0000                	.insn	2, 0x
     146:	7815                	.insn	2, 0x7815
    lw      x8,  OFF_X(8)(sp)
     148:	0002                	.insn	2, 0x0002
     14a:	2d00                	.insn	2, 0x2d00
    lw      x9,  OFF_X(9)(sp)
     14c:	0141                	.insn	2, 0x0141
     14e:	0000                	.insn	2, 0x
    lw      x10, OFF_X(10)(sp)
     150:	0305                	.insn	2, 0x0305
     152:	0010                	.insn	2, 0x0010
    lw      x11, OFF_X(11)(sp)
     154:	2000                	.insn	2, 0x2000
     156:	0016                	.insn	2, 0x0016
    lw      x12, OFF_X(12)(sp)
     158:	0000                	.insn	2, 0x
     15a:	0700                	.insn	2, 0x0700
    lw      x13, OFF_X(13)(sp)
     15c:	932d                	.insn	2, 0x932d
     15e:	0000                	.insn	2, 0x
    lw      x14, OFF_X(14)(sp)
     160:	6c00                	.insn	2, 0x6c00
     162:	0001                	.insn	2, 0x0001
    lw      x15, OFF_X(15)(sp)
     164:	0800                	.insn	2, 0x0800
     166:	016c                	.insn	2, 0x016c
    lw      x16, OFF_X(16)(sp)
     168:	0000                	.insn	2, 0x
     16a:	0024                	.insn	2, 0x0024
    lw      x17, OFF_X(17)(sp)
     16c:	780a                	.insn	2, 0x780a
     16e:	0001                	.insn	2, 0x0001
    lw      x18, OFF_X(18)(sp)
     170:	0200                	.insn	2, 0x0200
     172:	0801                	.insn	2, 0x0801
    lw      x19, OFF_X(19)(sp)
     174:	00a2                	.insn	2, 0x00a2
     176:	0000                	.insn	2, 0x
    lw      x20, OFF_X(20)(sp)
     178:	7112                	.insn	2, 0x7112
     17a:	0001                	.insn	2, 0x0001
    lw      x21, OFF_X(21)(sp)
     17c:	0600                	.insn	2, 0x0600
     17e:	01f4                	.insn	2, 0x01f4
    lw      x22, OFF_X(22)(sp)
     180:	0000                	.insn	2, 0x
     182:	3f05                	.insn	2, 0x3f05
    lw      x23, OFF_X(23)(sp)
     184:	5206                	.insn	2, 0x5206
     186:	0000                	.insn	2, 0x
    lw      x24, OFF_X(24)(sp)
     188:	0600                	.insn	2, 0x0600
     18a:	02511637          	lui	a2,0x2511
    lw      x25, OFF_X(25)(sp)
     18e:	0000                	.insn	2, 0x
    lw      x26, OFF_X(26)(sp)
     190:	3306                	.insn	2, 0x3306
     192:	00000093          	li	ra,0
    lw      x27, OFF_X(27)(sp)
     196:	01a0                	.insn	2, 0x01a0
    lw      x28, OFF_X(28)(sp)
     198:	0000                	.insn	2, 0x
     19a:	a008                	.insn	2, 0xa008
    lw      x29, OFF_X(29)(sp)
     19c:	0001                	.insn	2, 0x0001
     19e:	0000                	.insn	2, 0x
    lw      x30, OFF_X(30)(sp)
     1a0:	a50a                	.insn	2, 0xa50a
     1a2:	0001                	.insn	2, 0x0001
    lw      x31, OFF_X(31)(sp)
     1a4:	2500                	.insn	2, 0x2500
     1a6:	e906                	.insn	2, 0xe906
    addi    sp, sp, FRAME_SIZE
     1a8:	0001                	.insn	2, 0x0001
     1aa:	0600                	.insn	2, 0x0600
    mret
     1ac:	01bb062f          	.insn	4, 0x01bb062f
{
     1b0:	0000                	.insn	2, 0x
     1b2:	3e05                	.insn	2, 0x3e05
     1b4:	5d06                	.insn	2, 0x5d06
     1b6:	0002                	.insn	2, 0x0002
     1b8:	0500                	.insn	2, 0x0500
     1ba:	1744                	.insn	2, 0x1744
     1bc:	00000083          	lb	ra,0(zero) # 0 <_start>
     1c0:	3405                	.insn	2, 0x3405
     1c2:	01cc                	.insn	2, 0x01cc
     1c4:	0000                	.insn	2, 0x
     1c6:	0008                	.insn	2, 0x0008
    for (int i = 0; i < TASK_ITERS; i++) {
     1c8:	0001                	.insn	2, 0x0001
     1ca:	0000                	.insn	2, 0x
        uart_printf("[task1] iter=%d tick=%u\n", i, timer_count);
     1cc:	00028217          	auipc	tp,0x28
     1d0:	0700                	.insn	2, 0x0700
     1d2:	0001dd23          	.insn	4, 0x0001dd23
    for (int i = 0; i < TASK_ITERS; i++) {
     1d6:	0800                	.insn	2, 0x0800
        uart_printf("[task1] iter=%d tick=%u\n", i, timer_count);
     1d8:	016c                	.insn	2, 0x016c
     1da:	0000                	.insn	2, 0x
     1dc:	0600                	.insn	2, 0x0600
     1de:	0204                	.insn	2, 0x0204
     1e0:	0000                	.insn	2, 0x
     1e2:	b6265403          	lhu	s0,-1182(a2) # 2510b62 <__stack_size+0x2508b62>
     1e6:	0001                	.insn	2, 0x0001
    for (int i = 0; i < TASK_ITERS; i++) {
     1e8:	0100                	.insn	2, 0x0100
     1ea:	0550                	.insn	2, 0x0550
        task_yield();
     1ec:	00000093          	li	ra,0
    for (int i = 0; i < TASK_ITERS; i++) {
     1f0:	02c8                	.insn	2, 0x02c8
     1f2:	0000                	.insn	2, 0x
    task_done[1] = 1;
     1f4:	00ac                	.insn	2, 0x00ac
     1f6:	0000                	.insn	2, 0x
     1f8:	9c01                	.insn	2, 0x9c01
     1fa:	000002ef          	jal	t0,1fa <task1+0x4a>
     1fe:	0002dc03          	lhu	s8,0(t0)
     202:	dd00                	.insn	2, 0xdd00
    for (;;) task_yield();
     204:	0001                	.insn	2, 0x0001
     206:	0400                	.insn	2, 0x0400
     208:	02e8                	.insn	2, 0x02e8
     20a:	0000                	.insn	2, 0x
{
     20c:	01cc                	.insn	2, 0x01cc
     20e:	0000                	.insn	2, 0x
     210:	021e                	.insn	2, 0x021e
     212:	0000                	.insn	2, 0x
     214:	0101                	.insn	2, 0x0101
     216:	055a                	.insn	2, 0x055a
     218:	000a1803          	lh	a6,0(s4)
     21c:	0000                	.insn	2, 0x
     21e:	f004                	.insn	2, 0xf004
     220:	0002                	.insn	2, 0x0002
     222:	bb00                	.insn	2, 0xbb00
    for (int i = 0; i < TASK_ITERS; i++) {
     224:	0001                	.insn	2, 0x0001
     226:	3500                	.insn	2, 0x3500
        uart_printf("[task0] iter=%d tick=%u\n", i, timer_count);
     228:	0002                	.insn	2, 0x0002
     22a:	0100                	.insn	2, 0x0100
     22c:	5a01                	.insn	2, 0x5a01
     22e:	0305                	.insn	2, 0x0305
    for (int i = 0; i < TASK_ITERS; i++) {
     230:	02b4                	.insn	2, 0x02b4
     232:	0000                	.insn	2, 0x
        uart_printf("[task0] iter=%d tick=%u\n", i, timer_count);
     234:	0400                	.insn	2, 0x0400
     236:	02f4                	.insn	2, 0x02f4
     238:	0000                	.insn	2, 0x
     23a:	0488                	.insn	2, 0x0488
     23c:	0000                	.insn	2, 0x
     23e:	024e                	.insn	2, 0x024e
     240:	0000                	.insn	2, 0x
     242:	ea18                	.insn	2, 0xea18
    for (int i = 0; i < TASK_ITERS; i++) {
     244:	05000003          	lb	zero,80(zero) # 50 <_start+0x50>
        task_yield();
     248:	880a                	.insn	2, 0x880a
     24a:	0026a813          	slti	a6,a3,2
    for (int i = 0; i < TASK_ITERS; i++) {
     24e:	0002f803          	.insn	4, 0x0002f803
    task_done[0] = 1;
     252:	b400                	.insn	2, 0xb400
     254:	0001                	.insn	2, 0x0001
     256:	0300                	.insn	2, 0x0300
     258:	02fc                	.insn	2, 0x02fc
     25a:	0000                	.insn	2, 0x
    for (;;) task_yield();
     25c:	01ad                	.insn	2, 0x01ad
     25e:	0000                	.insn	2, 0x
     260:	00030003          	lb	zero,0(t1)
    return *(volatile uint32_t *)addr;
     264:	a600                	.insn	2, 0xa600
     266:	0001                	.insn	2, 0x0001
     268:	0400                	.insn	2, 0x0400
     26a:	0308                	.insn	2, 0x0308
     26c:	0000                	.insn	2, 0x
     26e:	0000018b          	.insn	4, 0x018b
     272:	0280                	.insn	2, 0x0280
     274:	0000                	.insn	2, 0x
     276:	0101                	.insn	2, 0x0101
     278:	055a                	.insn	2, 0x055a
     27a:	00020c03          	lb	s8,0(tp) # 281cc <__stack_size+0x201cc>
     27e:	0000                	.insn	2, 0x
    } while (hi0 != hi1);
     280:	1404                	.insn	2, 0x1404
     282:	8b000003          	lb	zero,-1872(zero) # fffff8b0 <__stack_top+0xdffbf8b0>
    uint64_t deadline = clint_mtime() + delta_ticks;
     286:	0001                	.insn	2, 0x0001
     288:	9700                	.insn	2, 0x9700
     28a:	0002                	.insn	2, 0x0002
     28c:	0100                	.insn	2, 0x0100
     28e:	5a01                	.insn	2, 0x5a01
     290:	0305                	.insn	2, 0x0305
     292:	01b0                	.insn	2, 0x01b0
     294:	0000                	.insn	2, 0x
     296:	0300                	.insn	2, 0x0300
    *(volatile uint32_t *)addr = v;
     298:	0334                	.insn	2, 0x0334
     29a:	0000                	.insn	2, 0x
     29c:	017d                	.insn	2, 0x017d
     29e:	0000                	.insn	2, 0x
     2a0:	4804                	.insn	2, 0x4804
     2a2:	56000003          	lb	zero,1376(zero) # 560 <bsp_irq_enable+0x4>
     2a6:	0001                	.insn	2, 0x0001
     2a8:	b700                	.insn	2, 0xb700
     2aa:	0002                	.insn	2, 0x0002
     2ac:	0100                	.insn	2, 0x0100
     2ae:	5a01                	.insn	2, 0x5a01
}
     2b0:	0305                	.insn	2, 0x0305
     2b2:	0a48                	.insn	2, 0x0a48
    timer_count++;
     2b4:	0000                	.insn	2, 0x
     2b6:	0400                	.insn	2, 0x0400
     2b8:	0354                	.insn	2, 0x0354
     2ba:	0000                	.insn	2, 0x
     2bc:	01cc                	.insn	2, 0x01cc
     2be:	0000                	.insn	2, 0x
     2c0:	02ce                	.insn	2, 0x02ce
     2c2:	0000                	.insn	2, 0x
    clint_schedule_relative(TICK_INTERVAL_TICKS);
     2c4:	0101                	.insn	2, 0x0101
     2c6:	055a                	.insn	2, 0x055a
{
     2c8:	000a7003          	.insn	4, 0x000a7003
     2cc:	0000                	.insn	2, 0x
     2ce:	6804                	.insn	2, 0x6804
     2d0:	cc000003          	lb	zero,-832(zero) # fffffcc0 <__stack_top+0xdffbfcc0>
     2d4:	0001                	.insn	2, 0x0001
     2d6:	e500                	.insn	2, 0xe500
    bsp_init();
     2d8:	0002                	.insn	2, 0x0002
     2da:	0100                	.insn	2, 0x0100
    uart_puts("os_demo boot\n");
     2dc:	5a01                	.insn	2, 0x5a01
     2de:	0305                	.insn	2, 0x0305
     2e0:	0a28                	.insn	2, 0x0a28
     2e2:	0000                	.insn	2, 0x
     2e4:	0300                	.insn	2, 0x0300
     2e6:	0370                	.insn	2, 0x0370
    bsp_set_timer_handler(timer_tick);
     2e8:	0000                	.insn	2, 0x
     2ea:	0184                	.insn	2, 0x0184
     2ec:	0000                	.insn	2, 0x
     2ee:	0d00                	.insn	2, 0x0d00
    clint_schedule_relative(TICK_INTERVAL_TICKS);
     2f0:	020d                	.insn	2, 0x020d
     2f2:	0000                	.insn	2, 0x
    bsp_enable_timer_interrupt();
     2f4:	b046                	.insn	2, 0xb046
     2f6:	0001                	.insn	2, 0x0001
    bsp_irq_enable();
     2f8:	5c00                	.insn	2, 0x5c00
     2fa:	0000                	.insn	2, 0x
    sched_init();
     2fc:	0100                	.insn	2, 0x0100
     2fe:	499c                	.insn	2, 0x499c
    if (task_create(task0) < 0 || task_create(task1) < 0) {
     300:	19000003          	lb	zero,400(zero) # 190 <bsp_trap_entry+0x120>
     304:	000c                	.insn	2, 0x000c
     306:	0000                	.insn	2, 0x
     308:	0000033f 4800691a 	.insn	8, 0x4800691a0000033f
     310:	00000093          	li	ra,0
     314:	000c                	.insn	2, 0x000c
     316:	0000                	.insn	2, 0x
    while (!(task_done[0] && task_done[1])) {
     318:	e804                	.insn	2, 0xe804
     31a:	0001                	.insn	2, 0x0001
     31c:	5600                	.insn	2, 0x5600
     31e:	0001                	.insn	2, 0x0001
     320:	3500                	.insn	2, 0x3500
     322:	01000003          	lb	zero,16(zero) # 10 <_start+0x10>
     326:	5a01                	.insn	2, 0x5a01
     328:	0305                	.insn	2, 0x0305
     32a:	09e0                	.insn	2, 0x09e0
     32c:	0000                	.insn	2, 0x
     32e:	0101                	.insn	2, 0x0101
    bsp_irq_disable();
     330:	0078025b          	.insn	4, 0x0078025b
    uart_printf("os_demo: all tasks finished (ticks=%u)\n", timer_count);
     334:	0300                	.insn	2, 0x0300
     336:	01f0                	.insn	2, 0x01f0
     338:	0000                	.insn	2, 0x
     33a:	0184                	.insn	2, 0x0184
     33c:	0000                	.insn	2, 0x
     33e:	0300                	.insn	2, 0x0300
     340:	0208                	.insn	2, 0x0208
     342:	0000                	.insn	2, 0x
     344:	0184                	.insn	2, 0x0184
     346:	0000                	.insn	2, 0x
    uart_puts("OS_DEMO_PASS\n");
     348:	0d00                	.insn	2, 0x0d00
     34a:	000000a7          	.insn	4, 0x00a7
     34e:	0c3a                	.insn	2, 0x0c3a
     350:	0002                	.insn	2, 0x0002
     352:	5800                	.insn	2, 0x5800
        __asm__ volatile("wfi");
     354:	0000                	.insn	2, 0x
     356:	0100                	.insn	2, 0x0100
    for (;;) {
     358:	a39c                	.insn	2, 0xa39c
     35a:	19000003          	lb	zero,400(zero) # 190 <bsp_trap_entry+0x120>
        uart_puts("os_demo: task_create failed\n");
     35e:	0018                	.insn	2, 0x0018
     360:	0000                	.insn	2, 0x
     362:	0399                	.insn	2, 0x0399
     364:	0000                	.insn	2, 0x
     366:	691a                	.insn	2, 0x691a
        for (;;) {}
     368:	3c00                	.insn	2, 0x3c00
     36a:	00000093          	li	ra,0
        task_yield();
     36e:	0029                	.insn	2, 0x0029
     370:	0000                	.insn	2, 0x
     372:	4404                	.insn	2, 0x4404
    ntasks   = 1;
     374:	0002                	.insn	2, 0x0002
     376:	5600                	.insn	2, 0x5600
     378:	0001                	.insn	2, 0x0001
     37a:	8f00                	.insn	2, 0x8f00
    cur_task = 0;
     37c:	01000003          	lb	zero,16(zero) # 10 <_start+0x10>
     380:	5a01                	.insn	2, 0x5a01
     382:	0305                	.insn	2, 0x0305
}
     384:	09fc                	.insn	2, 0x09fc
     386:	0000                	.insn	2, 0x
{
     388:	0101                	.insn	2, 0x0101
     38a:	0078025b          	.insn	4, 0x0078025b
    if (ntasks >= SCHED_MAX_TASKS) {
     38e:	0300                	.insn	2, 0x0300
     390:	024c                	.insn	2, 0x024c
     392:	0000                	.insn	2, 0x
     394:	0184                	.insn	2, 0x0184
     396:	0000                	.insn	2, 0x
    int id = ntasks++;
     398:	0300                	.insn	2, 0x0300
     39a:	0260                	.insn	2, 0x0260
     39c:	0000                	.insn	2, 0x
     39e:	0184                	.insn	2, 0x0184
    struct sched_ctx *c = &tasks[id];
     3a0:	0000                	.insn	2, 0x
     3a2:	0d00                	.insn	2, 0x0d00
     3a4:	0025                	.insn	2, 0x0025
     3a6:	0000                	.insn	2, 0x
     3a8:	0002b42f          	.insn	4, 0x0002b42f
     3ac:	1400                	.insn	2, 0x1400
     3ae:	0000                	.insn	2, 0x
     3b0:	0100                	.insn	2, 0x0100
     3b2:	db9c                	.insn	2, 0xdb9c
     3b4:	27000003          	lb	zero,624(zero) # 270 <clint_schedule_relative.constprop.0.isra.0+0xc>
     3b8:	0066                	.insn	2, 0x0066
     3ba:	2f01                	.insn	2, 0x2f01
        p[i] = 0;
     3bc:	1c35                	.insn	2, 0x1c35
     3be:	0001                	.insn	2, 0x0001
    for (unsigned i = 0; i < sizeof(*c) / sizeof(uint32_t); i++) {
     3c0:	4600                	.insn	2, 0x4600
     3c2:	0000                	.insn	2, 0x
     3c4:	2800                	.insn	2, 0x2800
     3c6:	02c8                	.insn	2, 0x02c8
    c->ra = (uint32_t)(uintptr_t)entry;
     3c8:	0000                	.insn	2, 0x
     3ca:	0488                	.insn	2, 0x0488
     3cc:	0000                	.insn	2, 0x
     3ce:	ea18                	.insn	2, 0xea18
    c->sp = (uint32_t)(uintptr_t)&stacks[id][SCHED_STACK_SIZE];
     3d0:	05000003          	lb	zero,80(zero) # 50 <_start+0x50>
    c->ra = (uint32_t)(uintptr_t)entry;
     3d4:	880a                	.insn	2, 0x880a
     3d6:	0026a813          	slti	a6,a3,2
    c->sp = (uint32_t)(uintptr_t)&stacks[id][SCHED_STACK_SIZE];
     3da:	0e00                	.insn	2, 0x0e00
     3dc:	003a                	.insn	2, 0x003a
     3de:	0000                	.insn	2, 0x
     3e0:	5002                	.insn	2, 0x5002
     3e2:	00000087          	.insn	4, 0x0087
    c->ra = (uint32_t)(uintptr_t)entry;
     3e6:	00000403          	lb	s0,0(zero) # 0 <_start>
    c->sp = (uint32_t)(uintptr_t)&stacks[id][SCHED_STACK_SIZE];
     3ea:	0000720b          	.insn	4, 0x720b
    return id;
     3ee:	0200                	.insn	2, 0x0200
        return -1;
     3f0:	3950                	.insn	2, 0x3950
     3f2:	00000087          	.insn	4, 0x0087
}
     3f6:	2129                	.insn	2, 0x2129
    if (ntasks <= 1) return;
     3f8:	0002                	.insn	2, 0x0002
     3fa:	0200                	.insn	2, 0x0200
     3fc:	0e52                	.insn	2, 0x0e52
     3fe:	00000087          	.insn	4, 0x0087
     402:	1b00                	.insn	2, 0x1b00
    int prev = cur_task;
     404:	000000d3          	.insn	4, 0x00d3
     408:	4002                	.insn	2, 0x4002
     40a:	1c14                	.insn	2, 0x1c14
    sched_switch(&tasks[prev], &tasks[next]);
     40c:	0004                	.insn	2, 0x0004
     40e:	0b00                	.insn	2, 0x0b00
     410:	0221                	.insn	2, 0x0221
     412:	0000                	.insn	2, 0x
    int next = (cur_task + 1) % ntasks;
     414:	4002                	.insn	2, 0x4002
     416:	8730                	.insn	2, 0x8730
     418:	0000                	.insn	2, 0x
     41a:	0000                	.insn	2, 0x
    cur_task = next;
     41c:	2a0e                	.insn	2, 0x2a0e
     41e:	0002                	.insn	2, 0x0002
    sched_switch(&tasks[prev], &tasks[next]);
     420:	0200                	.insn	2, 0x0200
     422:	872e                	.insn	2, 0x872e
     424:	0000                	.insn	2, 0x
     426:	4900                	.insn	2, 0x4900
     428:	0004                	.insn	2, 0x0004
     42a:	0f00                	.insn	2, 0x0f00
     42c:	6968                	.insn	2, 0x6968
     42e:	0030                	.insn	2, 0x0030
     430:	6f0e                	.insn	2, 0x6f0e
     432:	0000                	.insn	2, 0x
     434:	0f00                	.insn	2, 0x0f00
     436:	6f6c                	.insn	2, 0x6f6c
}
     438:	1300                	.insn	2, 0x1300
     43a:	0000006f          	j	43a <task_yield+0x42>
    sw   ra,  0(a0)
     43e:	3169680f          	.insn	4, 0x3169680f
    sw   sp,  4(a0)
     442:	1700                	.insn	2, 0x1700
    sw   s0,  8(a0)
     444:	0000006f          	j	444 <sched_switch+0x8>
    sw   s1, 12(a0)
     448:	0e00                	.insn	2, 0x0e00
     44a:	0066                	.insn	2, 0x0066
    sw   s2, 16(a0)
     44c:	0000                	.insn	2, 0x
     44e:	006f4903          	lbu	s2,6(t5)
    sw   s3, 20(a0)
     452:	0000                	.insn	2, 0x
    sw   s4, 24(a0)
     454:	0465                	.insn	2, 0x0465
     456:	0000                	.insn	2, 0x
    sw   s5, 28(a0)
     458:	00007e0b          	.insn	4, 0x7e0b
    sw   s6, 32(a0)
     45c:	0300                	.insn	2, 0x0300
     45e:	2e49                	.insn	2, 0x2e49
    sw   s7, 36(a0)
     460:	009a                	.insn	2, 0x009a
     462:	0000                	.insn	2, 0x
    sw   s8, 40(a0)
     464:	1b00                	.insn	2, 0x1b00
     466:	00e6                	.insn	2, 0x00e6
    sw   s9, 44(a0)
     468:	0000                	.insn	2, 0x
     46a:	88184503          	lbu	a0,-1919(a6)
    sw   s10,48(a0)
     46e:	0004                	.insn	2, 0x0004
    sw   s11,52(a0)
     470:	0b00                	.insn	2, 0x0b00
     472:	007e                	.insn	2, 0x007e
    lw   ra,  0(a1)
     474:	0000                	.insn	2, 0x
     476:	9a2f4503          	lbu	a0,-1630(t5)
    lw   sp,  4(a1)
     47a:	0000                	.insn	2, 0x
    lw   s0,  8(a1)
     47c:	2a00                	.insn	2, 0x2a00
     47e:	0076                	.insn	2, 0x0076
    lw   s1, 12(a1)
     480:	6f3e4503          	lbu	a0,1779(t3)
    lw   s2, 16(a1)
     484:	0000                	.insn	2, 0x
     486:	0000                	.insn	2, 0x
    lw   s3, 20(a1)
     488:	0003db2b          	.insn	4, 0x0003db2b
    lw   s4, 24(a1)
     48c:	6400                	.insn	2, 0x6400
     48e:	0002                	.insn	2, 0x0002
    lw   s5, 28(a1)
     490:	5000                	.insn	2, 0x5000
     492:	0000                	.insn	2, 0x
    lw   s6, 32(a1)
     494:	0100                	.insn	2, 0x0100
     496:	1c9c                	.insn	2, 0x1c9c
    lw   s7, 36(a1)
     498:	03f6                	.insn	2, 0x03f6
     49a:	0000                	.insn	2, 0x
    lw   s8, 40(a1)
     49c:	5e06                	.insn	2, 0x5e06
     49e:	935f0493          	addi	s1,t5,-1739
    lw   s9, 44(a1)
     4a2:	2c04                	.insn	2, 0x2c04
    lw   s10,48(a1)
     4a4:	03ea                	.insn	2, 0x03ea
     4a6:	0000                	.insn	2, 0x
    lw   s11,52(a1)
     4a8:	1388                	.insn	2, 0x1388
     4aa:	1c10                	.insn	2, 0x1c10
    ret
     4ac:	0004                	.insn	2, 0x0004
     4ae:	6400                	.insn	2, 0x6400
{
     4b0:	0002                	.insn	2, 0x0002
     4b2:	2000                	.insn	2, 0x2000
     4b4:	0000                	.insn	2, 0x
     4b6:	5200                	.insn	2, 0x5200
     4b8:	2819                	.insn	2, 0x2819
     4ba:	0005                	.insn	2, 0x0005
    uart_puts("\n[bsp] UNHANDLED TRAP: ");
     4bc:	1d00                	.insn	2, 0x1d00
     4be:	0000042b          	.insn	4, 0x042b
     4c2:	005f 0000 351d      	.insn	6, 0x351d0000005f
{
     4c8:	0004                	.insn	2, 0x0004
     4ca:	6800                	.insn	2, 0x6800
     4cc:	0000                	.insn	2, 0x
     4ce:	1c00                	.insn	2, 0x1c00
    uart_puts("\n[bsp] UNHANDLED TRAP: ");
     4d0:	043e                	.insn	2, 0x043e
     4d2:	0000                	.insn	2, 0x
    uart_puts(tag);
     4d4:	5b01                	.insn	2, 0x5b01
     4d6:	491e                	.insn	2, 0x491e
     4d8:	0004                	.insn	2, 0x0004
     4da:	6400                	.insn	2, 0x6400
    uart_printf("  mcause=0x%08x  mepc=0x%08x  mtval=0x%08x  mstatus=0x%08x\n",
     4dc:	0002                	.insn	2, 0x0002
     4de:	2400                	.insn	2, 0x2400
     4e0:	0000                	.insn	2, 0x
     4e2:	3200                	.insn	2, 0x3200
     4e4:	04f2                	.insn	2, 0x04f2
     4e6:	0000                	.insn	2, 0x
     4e8:	5805                	.insn	2, 0x5805
     4ea:	0004                	.insn	2, 0x0004
     4ec:	7b00                	.insn	2, 0x7b00
     4ee:	0000                	.insn	2, 0x
     4f0:	0000                	.insn	2, 0x
     4f2:	491e                	.insn	2, 0x491e
     4f4:	0004                	.insn	2, 0x0004
     4f6:	6800                	.insn	2, 0x6800
    for (;;) {
     4f8:	0002                	.insn	2, 0x0002
     4fa:	3300                	.insn	2, 0x3300
    default_banner(f, "exception");
     4fc:	0000                	.insn	2, 0x
     4fe:	3300                	.insn	2, 0x3300
{
     500:	050e                	.insn	2, 0x050e
     502:	0000                	.insn	2, 0x
    default_banner(f, "exception");
     504:	5805                	.insn	2, 0x5805
     506:	0004                	.insn	2, 0x0004
{
     508:	8900                	.insn	2, 0x8900
     50a:	0000                	.insn	2, 0x
    default_banner(f, "exception");
     50c:	0000                	.insn	2, 0x
     50e:	4911                	.insn	2, 0x4911
{
     510:	0004                	.insn	2, 0x0004
     512:	7c00                	.insn	2, 0x7c00
     514:	0002                	.insn	2, 0x0002
     516:	0400                	.insn	2, 0x0400
     518:	0000                	.insn	2, 0x
     51a:	3400                	.insn	2, 0x3400
    default_banner(f, "unhandled msi");
     51c:	0458050f          	.insn	4, 0x0458050f
     520:	0000                	.insn	2, 0x
     522:	00000097          	auipc	ra,0x0
     526:	0000                	.insn	2, 0x
     528:	0311                	.insn	2, 0x0311
     52a:	0004                	.insn	2, 0x0004
{
     52c:	9800                	.insn	2, 0x9800
     52e:	0002                	.insn	2, 0x0002
     530:	1800                	.insn	2, 0x1800
     532:	0000                	.insn	2, 0x
     534:	5300                	.insn	2, 0x5300
     536:	0505                	.insn	2, 0x0505
     538:	0000040f          	.insn	4, 0x040f
     53c:	00a5                	.insn	2, 0x00a5
     53e:	0000                	.insn	2, 0x
    default_banner(f, "unhandled mti");
     540:	6510                	.insn	2, 0x6510
     542:	0004                	.insn	2, 0x0004
     544:	9800                	.insn	2, 0x9800
     546:	0002                	.insn	2, 0x0002
     548:	0c00                	.insn	2, 0x0c00
     54a:	0000                	.insn	2, 0x
     54c:	4200                	.insn	2, 0x4200
     54e:	6605                	.insn	2, 0x6605
     550:	0005                	.insn	2, 0x0005
     552:	0500                	.insn	2, 0x0500
void bsp_set_timer_handler(bsp_trap_handler_t h) { timer_handler = h; }
     554:	047d                	.insn	2, 0x047d
     556:	0000                	.insn	2, 0x
     558:	000000b3          	add	ra,zero,zero
void bsp_irq_enable(void)  { csr_set(mstatus, MSTATUS_MIE); }
     55c:	7105                	.insn	2, 0x7105
     55e:	0004                	.insn	2, 0x0004
     560:	be00                	.insn	2, 0xbe00
     562:	0000                	.insn	2, 0x
     564:	0000                	.insn	2, 0x
     566:	6510                	.insn	2, 0x6510
void bsp_irq_disable(void) { csr_clear(mstatus, MSTATUS_MIE); }
     568:	0004                	.insn	2, 0x0004
     56a:	a400                	.insn	2, 0xa400
     56c:	0002                	.insn	2, 0x0002
     56e:	0800                	.insn	2, 0x0800
     570:	0000                	.insn	2, 0x
     572:	4300                	.insn	2, 0x4300
void bsp_enable_timer_interrupt(void)    { csr_set(mie, MIE_MTIE); }
     574:	8c05                	.insn	2, 0x8c05
     576:	0005                	.insn	2, 0x0005
     578:	0500                	.insn	2, 0x0500
     57a:	047d                	.insn	2, 0x047d
     57c:	0000                	.insn	2, 0x
     57e:	00cc                	.insn	2, 0x00cc
    uint32_t mcause = f->mcause;
     580:	0000                	.insn	2, 0x
     582:	7105                	.insn	2, 0x7105
{
     584:	0004                	.insn	2, 0x0004
     586:	d500                	.insn	2, 0xd500
    if (mcause & MCAUSE_INTERRUPT_BIT) {
     588:	0000                	.insn	2, 0x
     58a:	0000                	.insn	2, 0x
        uint32_t code = mcause & MCAUSE_CODE_MASK;
     58c:	6511                	.insn	2, 0x6511
     58e:	0004                	.insn	2, 0x0004
     590:	ac00                	.insn	2, 0xac00
     592:	0002                	.insn	2, 0x0002
        switch (code) {
     594:	0400                	.insn	2, 0x0400
     596:	0000                	.insn	2, 0x
     598:	4400                	.insn	2, 0x4400
     59a:	0505                	.insn	2, 0x0505
{
     59c:	047d                	.insn	2, 0x047d
     59e:	0000                	.insn	2, 0x
     5a0:	000000e3          	beqz	zero,da0 <_data_lma+0x234>
     5a4:	7105                	.insn	2, 0x7105
     5a6:	0004                	.insn	2, 0x0004
        switch (code) {
     5a8:	ec00                	.insn	2, 0xec00
     5aa:	0000                	.insn	2, 0x
     5ac:	0000                	.insn	2, 0x
     5ae:	0000                	.insn	2, 0x
     5b0:	6900                	.insn	2, 0x6900
     5b2:	0002                	.insn	2, 0x0002
     5b4:	0500                	.insn	2, 0x0500
     5b6:	0100                	.insn	2, 0x0100
            default_banner(f, "unknown interrupt cause");
     5b8:	7804                	.insn	2, 0x7804
     5ba:	0002                	.insn	2, 0x0002
     5bc:	0b00                	.insn	2, 0x0b00
     5be:	0102                	.insn	2, 0x0102
     5c0:	0000                	.insn	2, 0x
     5c2:	de1d                	.insn	2, 0xde1d
            (timer_handler ? timer_handler : default_timer)(f);
     5c4:	0000                	.insn	2, 0x
     5c6:	0000                	.insn	2, 0x
     5c8:	0000                	.insn	2, 0x
     5ca:	7a00                	.insn	2, 0x7a00
     5cc:	0000                	.insn	2, 0x
     5ce:	0000                	.insn	2, 0x
        (h ? h : default_exception)(f);
     5d0:	0000                	.insn	2, 0x
     5d2:	5c00                	.insn	2, 0x5c00
     5d4:	0004                	.insn	2, 0x0004
     5d6:	0200                	.insn	2, 0x0200
            (soft_handler ? soft_handler : default_soft)(f);
     5d8:	0601                	.insn	2, 0x0601
     5da:	0000009b          	.insn	4, 0x009b
     5de:	0202                	.insn	2, 0x0202
     5e0:	3605                	.insn	2, 0x3605
     5e2:	0002                	.insn	2, 0x0002
}
     5e4:	0200                	.insn	2, 0x0200
     5e6:	0504                	.insn	2, 0x0504
     5e8:	0218                	.insn	2, 0x0218
     5ea:	0000                	.insn	2, 0x
            (soft_handler ? soft_handler : default_soft)(f);
     5ec:	0802                	.insn	2, 0x0802
     5ee:	1305                	.insn	2, 0x1305
}
     5f0:	0002                	.insn	2, 0x0002
     5f2:	0400                	.insn	2, 0x0400
        (h ? h : default_exception)(f);
     5f4:	01e1                	.insn	2, 0x01e1
     5f6:	0000                	.insn	2, 0x
    return *(volatile uint32_t *)addr;
     5f8:	182e                	.insn	2, 0x182e
     5fa:	004d                	.insn	2, 0x004d
     5fc:	0000                	.insn	2, 0x
     5fe:	0102                	.insn	2, 0x0102
     600:	9908                	.insn	2, 0x9908
     602:	0000                	.insn	2, 0x
            if (irq) {
     604:	0200                	.insn	2, 0x0200
     606:	0702                	.insn	2, 0x0702
                if (irq < IRQ_HANDLER_SLOTS && irq_handlers[irq])
     608:	00b4                	.insn	2, 0x00b4
     60a:	0000                	.insn	2, 0x
     60c:	4804                	.insn	2, 0x4804
     60e:	0002                	.insn	2, 0x0002
     610:	3400                	.insn	2, 0x3400
     612:	6619                	.insn	2, 0x6619
     614:	0000                	.insn	2, 0x
     616:	0200                	.insn	2, 0x0200
     618:	0704                	.insn	2, 0x0704
     61a:	000001cf          	.insn	4, 0x01cf
     61e:	0802                	.insn	2, 0x0802
     620:	0001ca07          	.insn	4, 0x0001ca07
                    irq_handlers[irq](irq);
     624:	0c00                	.insn	2, 0x0c00
     626:	0504                	.insn	2, 0x0504
     628:	6e69                	.insn	2, 0x6e69
     62a:	0074                	.insn	2, 0x0074
     62c:	0402                	.insn	2, 0x0402
     62e:	0001d407          	.insn	4, 0x0001d407
    *(volatile uint32_t *)addr = v;
     632:	0400                	.insn	2, 0x0400
     634:	0030                	.insn	2, 0x0030
     636:	0000                	.insn	2, 0x
}
     638:	1a56                	.insn	2, 0x1a56
     63a:	0000007b          	.insn	4, 0x007b
     63e:	a90d                	.insn	2, 0xa90d
     640:	0002                	.insn	2, 0x0002
     642:	3800                	.insn	2, 0x3800
     644:	29081903          	lh	s2,656(a6)
    uart_printf("\n[bsp] UNHANDLED PLIC IRQ %u\n", irq);
     648:	0001                	.insn	2, 0x0001
     64a:	0100                	.insn	2, 0x0100
     64c:	6172                	.insn	2, 0x6172
     64e:	1a00                	.insn	2, 0x1a00
     650:	0000005b          	.insn	4, 0x005b
    for (;;) {}
     654:	0100                	.insn	2, 0x0100
     656:	1b007073          	csrci	0x1b0,0
            (code < EXC_HANDLER_SLOTS) ? exc_handlers[code] : NULL;
     65a:	0000005b          	.insn	4, 0x005b
     65e:	0104                	.insn	2, 0x0104
     660:	1c003073          	csrc	0x1c0,zero
     664:	0000005b          	.insn	4, 0x005b
     668:	0108                	.insn	2, 0x0108
     66a:	1d003173          	csrrc	sp,0x1d0,zero
     66e:	0000005b          	.insn	4, 0x005b
     672:	010c                	.insn	2, 0x010c
        (h ? h : default_exception)(f);
     674:	1e003273          	csrrc	tp,0x1e0,zero
     678:	0000005b          	.insn	4, 0x005b
     67c:	0110                	.insn	2, 0x0110
     67e:	1f003373          	csrrc	t1,0x1f0,zero
    csr_write(mtvec, (uint32_t)(uintptr_t)bsp_trap_entry);
     682:	0000005b          	.insn	4, 0x005b
     686:	0114                	.insn	2, 0x0114
    csr_write(mstatus, MSTATUS_MPP);
     688:	20003473          	csrrc	s0,vsstatus,zero
     68c:	0000005b          	.insn	4, 0x005b
     690:	0118                	.insn	2, 0x0118
     692:	21003573          	csrrc	a0,0x210,zero
    csr_write(mie, 0);
     696:	0000005b          	.insn	4, 0x005b
     69a:	011c                	.insn	2, 0x011c
    return *(volatile uint32_t *)addr;
     69c:	22003673          	csrrc	a2,0x220,zero
     6a0:	0000005b          	.insn	4, 0x005b
     6a4:	0120                	.insn	2, 0x0120
     6a6:	23003773          	csrrc	a4,0x230,zero
    if (irq) plic_complete(irq);
     6aa:	0000005b          	.insn	4, 0x005b
    *(volatile uint32_t *)addr = v;
     6ae:	0124                	.insn	2, 0x0124
     6b0:	24003873          	csrrc	a6,vsscratch,zero
     6b4:	0000005b          	.insn	4, 0x005b
     6b8:	0128                	.insn	2, 0x0128
     6ba:	25003973          	csrrc	s2,vsiselect,zero
     6be:	0000005b          	.insn	4, 0x005b
     6c2:	012c                	.insn	2, 0x012c
     6c4:	00303173          	csrrc	sp,fcsr,zero
     6c8:	5b26                	.insn	2, 0x5b26
     6ca:	0000                	.insn	2, 0x
}
     6cc:	3000                	.insn	2, 0x3000
     6ce:	7301                	.insn	2, 0x7301
{
     6d0:	3131                	.insn	2, 0x3131
     6d2:	2700                	.insn	2, 0x2700
    const char *digits = upper_case ? digits_upper : digits_lower;
     6d4:	0000005b          	.insn	4, 0x005b
     6d8:	0034                	.insn	2, 0x0034
     6da:	00008d07          	.insn	4, 0x8d07
     6de:	3800                	.insn	2, 0x3800
    if (val == 0) {
     6e0:	0001                	.insn	2, 0x0001
     6e2:	0800                	.insn	2, 0x0800
        buf[i++] = '0';
     6e4:	0000007b          	.insn	4, 0x007b
     6e8:	0500                	.insn	2, 0x0500
     6ea:	02b9                	.insn	2, 0x02b9
     6ec:	0000                	.insn	2, 0x
     6ee:	290a                	.insn	2, 0x290a
    int i = 0;
     6f0:	0001                	.insn	2, 0x0001
     6f2:	0500                	.insn	2, 0x0500
    for (; i < pad_width; i++) {
     6f4:	00203003          	.insn	4, 0x00203003
     6f8:	0720                	.insn	2, 0x0720
     6fa:	0042                	.insn	2, 0x0042
     6fc:	0000                	.insn	2, 0x
     6fe:	015e                	.insn	2, 0x015e
     700:	0000                	.insn	2, 0x
     702:	7b08                	.insn	2, 0x7b08
     704:	0000                	.insn	2, 0x
     706:	0e00                	.insn	2, 0x0e00
     708:	0000007b          	.insn	4, 0x007b
    while (i-- > 0) {
     70c:	07ff 0f00 028c 0000 	.insn	10, 0x0b010000028c0f0007ff
     714:	0b01 
     716:	481c                	.insn	2, 0x481c
}
     718:	0001                	.insn	2, 0x0001
     71a:	1000                	.insn	2, 0x1000
     71c:	0305                	.insn	2, 0x0305
     71e:	0030                	.insn	2, 0x0030
    const char *digits = upper_case ? digits_upper : digits_lower;
     720:	2000                	.insn	2, 0x2000
     722:	b805                	.insn	2, 0xb805
     724:	0002                	.insn	2, 0x0002
     726:	0d00                	.insn	2, 0x0d00
     728:	0074                	.insn	2, 0x0074
     72a:	0000                	.insn	2, 0x
     72c:	0305                	.insn	2, 0x0305
     72e:	0018                	.insn	2, 0x0018
    int i = 0;
     730:	2000                	.insn	2, 0x2000
     732:	9305                	.insn	2, 0x9305
        while (val != 0 && i < 32) {
     734:	0002                	.insn	2, 0x0002
     736:	0e00                	.insn	2, 0x0e00
            buf[i++] = digits[val % base];
     738:	0074                	.insn	2, 0x0074
     73a:	0000                	.insn	2, 0x
     73c:	0305                	.insn	2, 0x0305
     73e:	0000                	.insn	2, 0x
     740:	2000                	.insn	2, 0x2000
     742:	9c10                	.insn	2, 0x9c10
     744:	0002                	.insn	2, 0x0002
     746:	0300                	.insn	2, 0x0300
     748:	01a8063b          	.insn	4, 0x01a8063b
            val /= base;
     74c:	0000                	.insn	2, 0x
     74e:	a809                	.insn	2, 0xa809
     750:	0001                	.insn	2, 0x0001
     752:	0900                	.insn	2, 0x0900
        while (val != 0 && i < 32) {
     754:	01a8                	.insn	2, 0x01a8
     756:	0000                	.insn	2, 0x
     758:	0600                	.insn	2, 0x0600
     75a:	008d                	.insn	2, 0x008d
     75c:	0000                	.insn	2, 0x
     75e:	5211                	.insn	2, 0x5211
     760:	0000                	.insn	2, 0x
     762:	0100                	.insn	2, 0x0100
        buf[i] = pad_char;
     764:	0630                	.insn	2, 0x0630
     766:	03f8                	.insn	2, 0x03f8
     768:	0000                	.insn	2, 0x
     76a:	0044                	.insn	2, 0x0044
     76c:	0000                	.insn	2, 0x
     76e:	9c01                	.insn	2, 0x9c01
    for (; i < pad_width; i++) {
     770:	01e9                	.insn	2, 0x01e9
     772:	0000                	.insn	2, 0x
     774:	bf0a                	.insn	2, 0xbf0a
     776:	0002                	.insn	2, 0x0002
        uart_putc(buf[i]);
     778:	3300                	.insn	2, 0x3300
     77a:	0074                	.insn	2, 0x0074
     77c:	0000                	.insn	2, 0x
     77e:	0106                	.insn	2, 0x0106
    mmio_write32(UART_DATA_REG, (uint8_t)c);
     780:	0000                	.insn	2, 0x
     782:	b30a                	.insn	2, 0xb30a
     784:	0002                	.insn	2, 0x0002
     786:	3400                	.insn	2, 0x3400
}
     788:	0074                	.insn	2, 0x0074
     78a:	0000                	.insn	2, 0x
     78c:	0000010f          	.insn	4, 0x010f
    while (*s) {
     790:	3812                	.insn	2, 0x3812
     792:	0004                	.insn	2, 0x0004
     794:	9100                	.insn	2, 0x9100
     796:	0001                	.insn	2, 0x0001
}
     798:	0000                	.insn	2, 0x
     79a:	00025113          	srli	sp,tp,0x0
        uart_putc(*s++);
     79e:	0100                	.insn	2, 0x0100
     7a0:	0518                	.insn	2, 0x0518
     7a2:	0074                	.insn	2, 0x0074
}
     7a4:	0000                	.insn	2, 0x
     7a6:	0388                	.insn	2, 0x0388
{
     7a8:	0000                	.insn	2, 0x
     7aa:	0070                	.insn	2, 0x0070
     7ac:	0000                	.insn	2, 0x
     7ae:	9c01                	.insn	2, 0x9c01
    va_start(ap, fmt);
     7b0:	0000024f          	.insn	4, 0x024f
{
     7b4:	0914                	.insn	2, 0x0914
     7b6:	0004                	.insn	2, 0x0004
     7b8:	0100                	.insn	2, 0x0100
     7ba:	1818                	.insn	2, 0x1818
     7bc:	0250                	.insn	2, 0x0250
     7be:	0000                	.insn	2, 0x
     7c0:	00000123          	sb	zero,2(zero) # 2 <_start+0x2>
     7c4:	00646903          	.insn	4, 0x00646903
     7c8:	091e                	.insn	2, 0x091e
     7ca:	0074                	.insn	2, 0x0074
     7cc:	0000                	.insn	2, 0x
     7ce:	00000133          	add	sp,zero,zero
     7d2:	1f006303          	.insn	4, 0x1f006303
     7d6:	0001a817          	auipc	a6,0x1a
     7da:	3c00                	.insn	2, 0x3c00
     7dc:	0001                	.insn	2, 0x0001
     7de:	0300                	.insn	2, 0x0300
     7e0:	0070                	.insn	2, 0x0070
     7e2:	02550f27          	.insn	4, 0x02550f27
     7e6:	0000                	.insn	2, 0x
     7e8:	013c                	.insn	2, 0x013c
     7ea:	0000                	.insn	2, 0x
     7ec:	6e15                	.insn	2, 0x6e15
     7ee:	0000                	.insn	2, 0x
    va_start(ap, fmt);
     7f0:	0300                	.insn	2, 0x0300
     7f2:	0069                	.insn	2, 0x0069
        if (*p != '%') {
     7f4:	1328                	.insn	2, 0x1328
     7f6:	0000007b          	.insn	4, 0x007b
        if (*p == '0') {
     7fa:	0150                	.insn	2, 0x0150
        while (*p >= '0' && *p <= '9') {
     7fc:	0000                	.insn	2, 0x
     7fe:	0000                	.insn	2, 0x
            pad_width = pad_width * 10 + (*p - '0');
     800:	0616                	.insn	2, 0x0616
     802:	0000024f          	.insn	4, 0x024f
        switch (*p) {
     806:	5b06                	.insn	2, 0x5b06
     808:	0000                	.insn	2, 0x
     80a:	1700                	.insn	2, 0x1700
    for (const char *p = fmt; *p; p++) {
     80c:	01e9                	.insn	2, 0x01e9
     80e:	0000                	.insn	2, 0x
     810:	1001                	.insn	2, 0x1001
     812:	7406                	.insn	2, 0x7406
}
     814:	14000003          	lb	zero,320(zero) # 140 <bsp_trap_entry+0xd0>
     818:	0000                	.insn	2, 0x
     81a:	0100                	.insn	2, 0x0100
     81c:	009c                	.insn	2, 0x009c
     81e:	002d                	.insn	2, 0x002d
     820:	0000                	.insn	2, 0x
     822:	0005                	.insn	2, 0x0005
     824:	0401                	.insn	2, 0x0401
     826:	03e0                	.insn	2, 0x03e0
     828:	0000                	.insn	2, 0x
     82a:	7101                	.insn	2, 0x7101
     82c:	0006                	.insn	2, 0x0006
     82e:	3c00                	.insn	2, 0x3c00
     830:	0004                	.insn	2, 0x0004
     832:	7400                	.insn	2, 0x7400
     834:	02c4                	.insn	2, 0x02c4
     836:	0000                	.insn	2, 0x
     838:	02f6                	.insn	2, 0x02f6
     83a:	0000                	.insn	2, 0x
     83c:	031f 0000 8001      	.insn	6, 0x80010000031f
        if (*p != '%') {
     842:	9c02                	.insn	2, 0x9c02
     844:	0002                	.insn	2, 0x0002
     846:	2f00                	.insn	2, 0x2f00
     848:	043c                	.insn	2, 0x043c
     84a:	0000                	.insn	2, 0x
    for (const char *p = fmt; *p; p++) {
     84c:	0374                	.insn	2, 0x0374
     84e:	6100                	.insn	2, 0x6100
     850:	0008                	.insn	2, 0x0008
     852:	0500                	.insn	2, 0x0500
        if (*p == '0') {
     854:	0100                	.insn	2, 0x0100
     856:	0804                	.insn	2, 0x0804
     858:	0004                	.insn	2, 0x0004
     85a:	2100                	.insn	2, 0x2100
            p++;
     85c:	0102                	.insn	2, 0x0102
     85e:	0000                	.insn	2, 0x
        pad_char  = ' ';
     860:	181d                	.insn	2, 0x181d
     862:	0001                	.insn	2, 0x0001
     864:	0000                	.insn	2, 0x
     866:	0000                	.insn	2, 0x
            pad_width = pad_width * 10 + (*p - '0');
     868:	ee00                	.insn	2, 0xee00
     86a:	0000                	.insn	2, 0x
            p++;
     86c:	0000                	.insn	2, 0x
     86e:	0000                	.insn	2, 0x
            pad_width = pad_width * 10 + (*p - '0');
     870:	6300                	.insn	2, 0x6300
     872:	03000007          	.insn	4, 0x03000007
        while (*p >= '0' && *p <= '9') {
     876:	0708                	.insn	2, 0x0708
     878:	01ca                	.insn	2, 0x01ca
     87a:	0000                	.insn	2, 0x
     87c:	d4070403          	lb	s0,-704(a4)
     880:	0001                	.insn	2, 0x0001
     882:	2200                	.insn	2, 0x2200
        switch (*p) {
     884:	0504                	.insn	2, 0x0504
     886:	6e69                	.insn	2, 0x6e69
     888:	0074                	.insn	2, 0x0074
     88a:	13050803          	lb	a6,304(a0)
     88e:	0002                	.insn	2, 0x0002
     890:	0300                	.insn	2, 0x0300
     892:	0410                	.insn	2, 0x0410
     894:	0000044f          	.insn	4, 0x044f
     898:	9b060103          	lb	sp,-1616(a2)
     89c:	0000                	.insn	2, 0x
     89e:	0300                	.insn	2, 0x0300
     8a0:	0502                	.insn	2, 0x0502
     8a2:	0236                	.insn	2, 0x0236
     8a4:	0000                	.insn	2, 0x
     8a6:	18050403          	lb	s0,384(a0)
     8aa:	0002                	.insn	2, 0x0002
     8ac:	0300                	.insn	2, 0x0300
     8ae:	0801                	.insn	2, 0x0801
    mmio_write32(UART_DATA_REG, (uint8_t)c);
     8b0:	0099                	.insn	2, 0x0099
     8b2:	0000                	.insn	2, 0x
     8b4:	b4070203          	lb	tp,-1216(a4)
        p++;
     8b8:	0000                	.insn	2, 0x
     8ba:	0d00                	.insn	2, 0x0d00
        pad_char  = ' ';
     8bc:	0248                	.insn	2, 0x0248
     8be:	0000                	.insn	2, 0x
     8c0:	3405                	.insn	2, 0x3405
     8c2:	7819                	.insn	2, 0x7819
        switch (*p) {
     8c4:	0000                	.insn	2, 0x
     8c6:	0300                	.insn	2, 0x0300
     8c8:	0704                	.insn	2, 0x0704
     8ca:	000001cf          	.insn	4, 0x01cf
     8ce:	300d                	.insn	2, 0x300d
     8d0:	0000                	.insn	2, 0x
     8d2:	0500                	.insn	2, 0x0500
            put_int(va_arg(ap, int32_t), pad_width, pad_char);
     8d4:	1a56                	.insn	2, 0x1a56
     8d6:	002d                	.insn	2, 0x002d
     8d8:	0000                	.insn	2, 0x
     8da:	0000f323          	.insn	4, 0xf323
     8de:	9000                	.insn	2, 0x9000
     8e0:	2606                	.insn	2, 0x2606
     8e2:	d008                	.insn	2, 0xd008
    if (val < 0) {
     8e4:	0000                	.insn	2, 0x
     8e6:	2400                	.insn	2, 0x2400
     8e8:	0078                	.insn	2, 0x0078
     8ea:	2706                	.insn	2, 0x2706
     8ec:	d50e                	.insn	2, 0xd50e
     8ee:	0000                	.insn	2, 0x
     8f0:	0000                	.insn	2, 0x
     8f2:	b10e                	.insn	2, 0xb10e
        put_uint((uint32_t)(-(int64_t)val), 10, 0, pad_width, pad_char);
     8f4:	0001                	.insn	2, 0x0001
     8f6:	2800                	.insn	2, 0x2800
     8f8:	006c                	.insn	2, 0x006c
     8fa:	0000                	.insn	2, 0x
     8fc:	0e80                	.insn	2, 0x0e80
     8fe:	00ad                	.insn	2, 0x00ad
            put_uint((uint32_t)(uintptr_t)va_arg(ap, void *), 16, 0, 8, '0');
     900:	0000                	.insn	2, 0x
     902:	6c29                	.insn	2, 0x6c29
            break;
     904:	0000                	.insn	2, 0x
     906:	8400                	.insn	2, 0x8400
        switch (*p) {
     908:	1f0e                	.insn	2, 0x1f0e
     90a:	0000                	.insn	2, 0x
     90c:	2a00                	.insn	2, 0x2a00
     90e:	006c                	.insn	2, 0x006c
     910:	0000                	.insn	2, 0x
     912:	0e88                	.insn	2, 0x0e88
     914:	0240                	.insn	2, 0x0240
     916:	0000                	.insn	2, 0x
     918:	00006c2b          	.insn	4, 0x6c2b
     91c:	8c00                	.insn	2, 0x8c00
     91e:	1a00                	.insn	2, 0x1a00
            const char *s = va_arg(ap, const char *);
     920:	0000008b          	.insn	4, 0x008b
     924:	00006c13          	ori	s8,zero,0
     928:	e500                	.insn	2, 0xe500
     92a:	0000                	.insn	2, 0x
     92c:	1400                	.insn	2, 0x1400
     92e:	002d                	.insn	2, 0x002d
            if (!s) s = "(null)";
     930:	0000                	.insn	2, 0x
     932:	001f 0c0d 0000      	.insn	6, 0x0c0d001f
     938:	0600                	.insn	2, 0x0600
     93a:	102e                	.insn	2, 0x102e
            uart_puts(s);
     93c:	00f1                	.insn	2, 0x00f1
     93e:	0000                	.insn	2, 0x
            break;
     940:	f60a                	.insn	2, 0xf60a
     942:	0000                	.insn	2, 0x
        switch (*p) {
     944:	1b00                	.insn	2, 0x1b00
     946:	0101                	.insn	2, 0x0101
     948:	0000                	.insn	2, 0x
     94a:	0001010f          	.insn	4, 0x0001010f
            put_uint(va_arg(ap, uint32_t), 16, 0, pad_width, pad_char);
     94e:	0000                	.insn	2, 0x
     950:	d00a                	.insn	2, 0xd00a
     952:	0000                	.insn	2, 0x
     954:	0d00                	.insn	2, 0x0d00
     956:	03e0                	.insn	2, 0x03e0
            put_uint((uint32_t)(uintptr_t)va_arg(ap, void *), 16, 0, 8, '0');
     958:	0000                	.insn	2, 0x
     95a:	2f06                	.insn	2, 0x2f06
     95c:	1210                	.insn	2, 0x1210
     95e:	0001                	.insn	2, 0x0001
            uart_putc((char)va_arg(ap, int));
     960:	0a00                	.insn	2, 0x0a00
     962:	00000117          	auipc	sp,0x0
     966:	0001221b          	.insn	4, 0x0001221b
     96a:	0f00                	.insn	2, 0x0f00
    mmio_write32(UART_DATA_REG, (uint8_t)c);
     96c:	006c                	.insn	2, 0x006c
     96e:	0000                	.insn	2, 0x
     970:	1000                	.insn	2, 0x1000
     972:	0000008b          	.insn	4, 0x008b
     976:	e518                	.insn	2, 0xe518
}
     978:	0000                	.insn	2, 0x
     97a:	0500                	.insn	2, 0x0500
        put_uint((uint32_t)val, 10, 0, pad_width, pad_char);
     97c:	00002003          	lw	zero,0(zero) # 0 <_start>
     980:	1020                	.insn	2, 0x1020
     982:	0350                	.insn	2, 0x0350
     984:	0000                	.insn	2, 0x
     986:	e519                	.insn	2, 0xe519
            put_uint(va_arg(ap, uint32_t), 10, 0, pad_width, pad_char);
     988:	0000                	.insn	2, 0x
     98a:	0500                	.insn	2, 0x0500
     98c:	00001c03          	lh	s8,0(zero) # 0 <_start>
     990:	1320                	.insn	2, 0x1320
     992:	00e5                	.insn	2, 0x00e5
     994:	0000                	.insn	2, 0x
     996:	0152                	.insn	2, 0x0152
     998:	0000                	.insn	2, 0x
     99a:	2d14                	.insn	2, 0x2d14
            put_uint((uint32_t)(uintptr_t)va_arg(ap, void *), 16, 0, 8, '0');
     99c:	0000                	.insn	2, 0x
     99e:	0b00                	.insn	2, 0x0b00
     9a0:	1000                	.insn	2, 0x1000
     9a2:	0000033b          	.insn	4, 0x033b
            put_uint(va_arg(ap, uint32_t), 16, 1, pad_width, pad_char);
     9a6:	421a                	.insn	2, 0x421a
     9a8:	0001                	.insn	2, 0x0001
     9aa:	0500                	.insn	2, 0x0500
     9ac:	00213003          	.insn	4, 0x00213003
     9b0:	1320                	.insn	2, 0x1320
     9b2:	0106                	.insn	2, 0x0106
            put_uint((uint32_t)(uintptr_t)va_arg(ap, void *), 16, 0, 8, '0');
     9b4:	0000                	.insn	2, 0x
     9b6:	0172                	.insn	2, 0x0172
     9b8:	0000                	.insn	2, 0x
     9ba:	2d14                	.insn	2, 0x2d14
            uart_puts("0x");
     9bc:	0000                	.insn	2, 0x
     9be:	0700                	.insn	2, 0x0700
     9c0:	1000                	.insn	2, 0x1000
     9c2:	0442                	.insn	2, 0x0442
     9c4:	0000                	.insn	2, 0x
     9c6:	0001621b          	.insn	4, 0x0001621b
            put_uint((uint32_t)(uintptr_t)va_arg(ap, void *), 16, 0, 8, '0');
     9ca:	0500                	.insn	2, 0x0500
     9cc:	00211003          	lh	zero,2(sp) # 964 <uart_printf+0x1bc>
     9d0:	2520                	.insn	2, 0x2520
     9d2:	0400                	.insn	2, 0x0400
     9d4:	0000                	.insn	2, 0x
     9d6:	4c06                	.insn	2, 0x4c06
     9d8:	260d                	.insn	2, 0x260d
     9da:	0282                	.insn	2, 0x0282
     9dc:	0000                	.insn	2, 0x
     9de:	9c062307          	.insn	4, 0x9c062307
     9e2:	0001                	.insn	2, 0x0001
     9e4:	0f00                	.insn	2, 0x0f00
     9e6:	019c                	.insn	2, 0x019c
     9e8:	0000                	.insn	2, 0x
     9ea:	0a00                	.insn	2, 0x0a00
     9ec:	01a8                	.insn	2, 0x01a8
     9ee:	0000                	.insn	2, 0x
     9f0:	a2080103          	lb	sp,-1504(a6) # 1a1f6 <__stack_size+0x121f6>
     9f4:	0000                	.insn	2, 0x
     9f6:	1a00                	.insn	2, 0x1a00
     9f8:	01a1                	.insn	2, 0x01a1
     9fa:	0000                	.insn	2, 0x
     9fc:	00000027          	.insn	4, 0x0027
     a00:	0700                	.insn	2, 0x0700
     a02:	062d                	.insn	2, 0x062d
     a04:	0034                	.insn	2, 0x0034
     a06:	0000                	.insn	2, 0x
     a08:	01c4                	.insn	2, 0x01c4
     a0a:	0000                	.insn	2, 0x
     a0c:	00019c0f          	.insn	4, 0x00019c0f
     a10:	2800                	.insn	2, 0x2800
     a12:	0400                	.insn	2, 0x0400
     a14:	0204                	.insn	2, 0x0204
     a16:	0000                	.insn	2, 0x
     a18:	0006808f          	.insn	4, 0x0006808f
     a1c:	5000                	.insn	2, 0x5000
     a1e:	0000                	.insn	2, 0x
     a20:	0100                	.insn	2, 0x0100
     a22:	249c                	.insn	2, 0x249c
     a24:	15000003          	lb	zero,336(zero) # 150 <bsp_trap_entry+0xe0>
     a28:	7269                	.insn	2, 0x7269
     a2a:	0071                	.insn	2, 0x0071
     a2c:	0e9f 006c 0000      	.insn	6, 0x006c0e9f
     a32:	0166                	.insn	2, 0x0166
     a34:	0000                	.insn	2, 0x
     a36:	8016                	.insn	2, 0x8016
     a38:	0006                	.insn	2, 0x0006
     a3a:	0800                	.insn	2, 0x0800
     a3c:	0000                	.insn	2, 0x
     a3e:	0000                	.insn	2, 0x
     a40:	0002                	.insn	2, 0x0002
     a42:	0700                	.insn	2, 0x0700
     a44:	5f5f 0076 0593      	.insn	6, 0x059300765f5f
     a4a:	006c                	.insn	2, 0x006c
     a4c:	0000                	.insn	2, 0x
     a4e:	1600                	.insn	2, 0x1600
     a50:	0688                	.insn	2, 0x0688
     a52:	0000                	.insn	2, 0x
     a54:	000c                	.insn	2, 0x000c
     a56:	0000                	.insn	2, 0x
     a58:	0000021b          	.insn	4, 0x021b
     a5c:	5f1c                	.insn	2, 0x5f1c
     a5e:	765f 9700 6c05      	.insn	6, 0x6c059700765f
     a64:	0000                	.insn	2, 0x
     a66:	0000                	.insn	2, 0x
     a68:	0018                	.insn	2, 0x0018
     a6a:	9416                	.insn	2, 0x9416
     a6c:	0006                	.insn	2, 0x0006
     a6e:	0800                	.insn	2, 0x0800
     a70:	0000                	.insn	2, 0x
     a72:	3500                	.insn	2, 0x3500
     a74:	0002                	.insn	2, 0x0002
     a76:	0b00                	.insn	2, 0x0b00
     a78:	5f5f 0076 059b      	.insn	6, 0x059b00765f5f
     a7e:	006c                	.insn	2, 0x006c
     a80:	0000                	.insn	2, 0x
     a82:	0000                	.insn	2, 0x
     a84:	1205                	.insn	2, 0x1205
     a86:	0008                	.insn	2, 0x0008
     a88:	9c00                	.insn	2, 0x9c00
     a8a:	0006                	.insn	2, 0x0006
     a8c:	0c00                	.insn	2, 0x0c00
     a8e:	0000                	.insn	2, 0x
     a90:	9f00                	.insn	2, 0x9f00
     a92:	6314                	.insn	2, 0x6314
     a94:	0002                	.insn	2, 0x0002
     a96:	0800                	.insn	2, 0x0800
     a98:	0828                	.insn	2, 0x0828
     a9a:	0000                	.insn	2, 0x
     a9c:	069c                	.insn	2, 0x069c
     a9e:	0000                	.insn	2, 0x
     aa0:	000c                	.insn	2, 0x000c
     aa2:	0000                	.insn	2, 0x
     aa4:	5304                	.insn	2, 0x5304
     aa6:	010c                	.insn	2, 0x010c
     aa8:	0839                	.insn	2, 0x0839
     aaa:	0000                	.insn	2, 0x
     aac:	0000016f          	jal	sp,aac <uart_printf+0x304>
     ab0:	0000                	.insn	2, 0x
     ab2:	f805                	.insn	2, 0xf805
     ab4:	ac000007          	.insn	4, 0xac000007
     ab8:	0006                	.insn	2, 0x0006
     aba:	0400                	.insn	2, 0x0400
     abc:	0000                	.insn	2, 0x
     abe:	a000                	.insn	2, 0xa000
     ac0:	a30e                	.insn	2, 0xa30e
     ac2:	0002                	.insn	2, 0x0002
     ac4:	0100                	.insn	2, 0x0100
     ac6:	0805                	.insn	2, 0x0805
     ac8:	0000                	.insn	2, 0x
     aca:	017d                	.insn	2, 0x017d
     acc:	0000                	.insn	2, 0x
     ace:	4508                	.insn	2, 0x4508
     ad0:	0008                	.insn	2, 0x0008
     ad2:	ac00                	.insn	2, 0xac00
     ad4:	0006                	.insn	2, 0x0006
     ad6:	0400                	.insn	2, 0x0400
     ad8:	0000                	.insn	2, 0x
     ada:	0400                	.insn	2, 0x0400
     adc:	0558                	.insn	2, 0x0558
     ade:	5901                	.insn	2, 0x5901
     ae0:	0008                	.insn	2, 0x0008
     ae2:	7d00                	.insn	2, 0x7d00
     ae4:	0001                	.insn	2, 0x0001
     ae6:	0100                	.insn	2, 0x0100
     ae8:	084e                	.insn	2, 0x084e
     aea:	0000                	.insn	2, 0x
     aec:	0186                	.insn	2, 0x0186
     aee:	0000                	.insn	2, 0x
     af0:	0000                	.insn	2, 0x
     af2:	4505                	.insn	2, 0x4505
     af4:	0008                	.insn	2, 0x0008
     af6:	b000                	.insn	2, 0xb000
     af8:	0006                	.insn	2, 0x0006
     afa:	0c00                	.insn	2, 0x0c00
     afc:	0000                	.insn	2, 0x
     afe:	a300                	.insn	2, 0xa300
     b00:	c905                	.insn	2, 0xc905
     b02:	0002                	.insn	2, 0x0002
     b04:	0100                	.insn	2, 0x0100
     b06:	0859                	.insn	2, 0x0859
     b08:	0000                	.insn	2, 0x
     b0a:	0194                	.insn	2, 0x0194
     b0c:	0000                	.insn	2, 0x
     b0e:	4e01                	.insn	2, 0x4e01
     b10:	0008                	.insn	2, 0x0008
     b12:	9f00                	.insn	2, 0x9f00
     b14:	0001                	.insn	2, 0x0001
     b16:	0000                	.insn	2, 0x
     b18:	4505                	.insn	2, 0x4505
     b1a:	0008                	.insn	2, 0x0008
     b1c:	bc00                	.insn	2, 0xbc00
     b1e:	0006                	.insn	2, 0x0006
     b20:	0800                	.insn	2, 0x0800
     b22:	0000                	.insn	2, 0x
     b24:	a400                	.insn	2, 0xa400
     b26:	ef05                	.insn	2, 0xef05
     b28:	0002                	.insn	2, 0x0002
     b2a:	0100                	.insn	2, 0x0100
     b2c:	0859                	.insn	2, 0x0859
     b2e:	0000                	.insn	2, 0x
     b30:	01ad                	.insn	2, 0x01ad
     b32:	0000                	.insn	2, 0x
     b34:	4e01                	.insn	2, 0x4e01
     b36:	0008                	.insn	2, 0x0008
     b38:	b800                	.insn	2, 0xb800
     b3a:	0001                	.insn	2, 0x0001
     b3c:	0000                	.insn	2, 0x
     b3e:	1f08                	.insn	2, 0x1f08
     b40:	0008                	.insn	2, 0x0008
     b42:	c400                	.insn	2, 0xc400
     b44:	0006                	.insn	2, 0x0006
     b46:	0800                	.insn	2, 0x0800
     b48:	0000                	.insn	2, 0x
     b4a:	0100                	.insn	2, 0x0100
     b4c:	450805a7          	.insn	4, 0x450805a7
     b50:	0008                	.insn	2, 0x0008
     b52:	c400                	.insn	2, 0xc400
     b54:	0006                	.insn	2, 0x0006
     b56:	0800                	.insn	2, 0x0800
     b58:	0000                	.insn	2, 0x
     b5a:	0200                	.insn	2, 0x0200
     b5c:	2f5c                	.insn	2, 0x2f5c
     b5e:	5901                	.insn	2, 0x5901
     b60:	0008                	.insn	2, 0x0008
     b62:	c600                	.insn	2, 0xc600
     b64:	0001                	.insn	2, 0x0001
     b66:	0100                	.insn	2, 0x0100
     b68:	084e                	.insn	2, 0x084e
     b6a:	0000                	.insn	2, 0x
     b6c:	01d0                	.insn	2, 0x01d0
     b6e:	0000                	.insn	2, 0x
     b70:	0000                	.insn	2, 0x
     b72:	2900                	.insn	2, 0x2900
     b74:	0430                	.insn	2, 0x0430
     b76:	0000                	.insn	2, 0x
     b78:	6501                	.insn	2, 0x6501
     b7a:	8006                	.insn	2, 0x8006
     b7c:	0005                	.insn	2, 0x0005
     b7e:	0000                	.insn	2, 0x
     b80:	0001                	.insn	2, 0x0001
     b82:	0100                	.insn	2, 0x0100
     b84:	769c                	.insn	2, 0x769c
     b86:	0004                	.insn	2, 0x0004
     b88:	0600                	.insn	2, 0x0600
     b8a:	0066                	.insn	2, 0x0066
     b8c:	2f65                	.insn	2, 0x2f65
     b8e:	0476                	.insn	2, 0x0476
     b90:	0000                	.insn	2, 0x
     b92:	01dd                	.insn	2, 0x01dd
     b94:	0000                	.insn	2, 0x
     b96:	0000ad17          	auipc	s10,0xa
     b9a:	6700                	.insn	2, 0x6700
     b9c:	6c0e                	.insn	2, 0x6c0e
     b9e:	0000                	.insn	2, 0x
     ba0:	5900                	.insn	2, 0x5900
     ba2:	0002                	.insn	2, 0x0002
     ba4:	1d00                	.insn	2, 0x1d00
     ba6:	00c0                	.insn	2, 0x00c0
     ba8:	0000                	.insn	2, 0x
     baa:	00000453          	.insn	4, 0x0453
     bae:	0003a117          	auipc	sp,0x3a
     bb2:	6a00                	.insn	2, 0x6a00
     bb4:	6c12                	.insn	2, 0x6c12
     bb6:	0000                	.insn	2, 0x
     bb8:	d900                	.insn	2, 0xd900
     bba:	0002                	.insn	2, 0x0002
     bbc:	1d00                	.insn	2, 0x1d00
     bbe:	00d1                	.insn	2, 0x00d1
     bc0:	0000                	.insn	2, 0x
     bc2:	0432                	.insn	2, 0x0432
     bc4:	0000                	.insn	2, 0x
     bc6:	6915                	.insn	2, 0x6915
     bc8:	7172                	.insn	2, 0x7172
     bca:	7500                	.insn	2, 0x7500
     bcc:	6c16                	.insn	2, 0x6c16
     bce:	0000                	.insn	2, 0x
     bd0:	6900                	.insn	2, 0x6900
     bd2:	05000003          	lb	zero,80(zero) # 50 <_start+0x50>
     bd6:	0812                	.insn	2, 0x0812
     bd8:	0000                	.insn	2, 0x
     bda:	05f8                	.insn	2, 0x05f8
     bdc:	0000                	.insn	2, 0x
     bde:	000c                	.insn	2, 0x000c
     be0:	0000                	.insn	2, 0x
     be2:	1c75                	.insn	2, 0x1c75
     be4:	03b4                	.insn	2, 0x03b4
     be6:	0000                	.insn	2, 0x
     be8:	2808                	.insn	2, 0x2808
     bea:	0008                	.insn	2, 0x0008
     bec:	f800                	.insn	2, 0xf800
     bee:	0005                	.insn	2, 0x0005
     bf0:	0c00                	.insn	2, 0x0c00
     bf2:	0000                	.insn	2, 0x
     bf4:	0400                	.insn	2, 0x0400
     bf6:	39010c53          	.insn	4, 0x39010c53
     bfa:	0008                	.insn	2, 0x0008
     bfc:	7f00                	.insn	2, 0x7f00
     bfe:	00000003          	lb	zero,0(zero) # 0 <_start>
     c02:	0500                	.insn	2, 0x0500
     c04:	07f8                	.insn	2, 0x07f8
     c06:	0000                	.insn	2, 0x
     c08:	0630                	.insn	2, 0x0630
     c0a:	0000                	.insn	2, 0x
     c0c:	0008                	.insn	2, 0x0008
     c0e:	0000                	.insn	2, 0x
     c10:	03f4117b          	.insn	4, 0x03f4117b
     c14:	0000                	.insn	2, 0x
     c16:	0501                	.insn	2, 0x0501
     c18:	0008                	.insn	2, 0x0008
     c1a:	8d00                	.insn	2, 0x8d00
     c1c:	08000003          	lb	zero,128(zero) # 80 <bsp_trap_entry+0x10>
     c20:	0845                	.insn	2, 0x0845
     c22:	0000                	.insn	2, 0x
     c24:	0630                	.insn	2, 0x0630
     c26:	0000                	.insn	2, 0x
     c28:	0008                	.insn	2, 0x0008
     c2a:	0000                	.insn	2, 0x
     c2c:	5804                	.insn	2, 0x5804
     c2e:	0105                	.insn	2, 0x0105
     c30:	0859                	.insn	2, 0x0859
     c32:	0000                	.insn	2, 0x
     c34:	038d                	.insn	2, 0x038d
     c36:	0000                	.insn	2, 0x
     c38:	4e01                	.insn	2, 0x4e01
     c3a:	0008                	.insn	2, 0x0008
     c3c:	9700                	.insn	2, 0x9700
     c3e:	00000003          	lb	zero,0(zero) # 0 <_start>
     c42:	0500                	.insn	2, 0x0500
     c44:	0629                	.insn	2, 0x0629
     c46:	0000                	.insn	2, 0x
     c48:	0648                	.insn	2, 0x0648
     c4a:	0000                	.insn	2, 0x
     c4c:	0010                	.insn	2, 0x0010
     c4e:	0000                	.insn	2, 0x
     c50:	157a                	.insn	2, 0x157a
     c52:	0424                	.insn	2, 0x0424
     c54:	0000                	.insn	2, 0x
     c56:	3601                	.insn	2, 0x3601
     c58:	0006                	.insn	2, 0x0006
     c5a:	a500                	.insn	2, 0xa500
     c5c:	09000003          	lb	zero,144(zero) # 90 <bsp_trap_entry+0x20>
     c60:	0654                	.insn	2, 0x0654
     c62:	0000                	.insn	2, 0x
     c64:	01ad                	.insn	2, 0x01ad
     c66:	0000                	.insn	2, 0x
     c68:	0102                	.insn	2, 0x0102
     c6a:	055a                	.insn	2, 0x055a
     c6c:	000b0003          	lb	zero,0(s6)
     c70:	0000                	.insn	2, 0x
     c72:	2a00                	.insn	2, 0x2a00
     c74:	0630                	.insn	2, 0x0630
     c76:	0000                	.insn	2, 0x
     c78:	0102                	.insn	2, 0x0102
     c7a:	035a                	.insn	2, 0x035a
     c7c:	6c91                	.insn	2, 0x6c91
     c7e:	0006                	.insn	2, 0x0006
     c80:	0900                	.insn	2, 0x0900
     c82:	05c4                	.insn	2, 0x05c4
     c84:	0000                	.insn	2, 0x
     c86:	0789                	.insn	2, 0x0789
     c88:	0000                	.insn	2, 0x
     c8a:	0102                	.insn	2, 0x0102
     c8c:	095a                	.insn	2, 0x095a
     c8e:	0aa503a3          	sb	a0,167(a0)
     c92:	a826                	.insn	2, 0xa826
     c94:	a82d                	.insn	2, 0xa82d
     c96:	0200                	.insn	2, 0x0200
     c98:	5b01                	.insn	2, 0x5b01
     c9a:	0305                	.insn	2, 0x0305
     c9c:	0b20                	.insn	2, 0x0b20
     c9e:	0000                	.insn	2, 0x
     ca0:	0000                	.insn	2, 0x
     ca2:	0000dd2b          	.insn	4, 0xdd2b
     ca6:	1700                	.insn	2, 0x1700
     ca8:	03a1                	.insn	2, 0x03a1
     caa:	0000                	.insn	2, 0x
     cac:	1284                	.insn	2, 0x1284
     cae:	006c                	.insn	2, 0x006c
     cb0:	0000                	.insn	2, 0x
     cb2:	03ae                	.insn	2, 0x03ae
     cb4:	0000                	.insn	2, 0x
     cb6:	6815                	.insn	2, 0x6815
     cb8:	8500                	.insn	2, 0x8500
     cba:	e51c                	.insn	2, 0xe51c
     cbc:	0000                	.insn	2, 0x
     cbe:	c000                	.insn	2, 0xc000
     cc0:	00000003          	lb	zero,0(zero) # 0 <_start>
     cc4:	0a00                	.insn	2, 0x0a00
     cc6:	0000008b          	.insn	4, 0x008b
     cca:	6904                	.insn	2, 0x6904
     ccc:	60000003          	lb	zero,1536(zero) # 600 <bsp_trap_dispatch+0x80>
	...
     cd8:	9c01                	.insn	2, 0x9c01
     cda:	04b1                	.insn	2, 0x04b1
     cdc:	0000                	.insn	2, 0x
     cde:	000c                	.insn	2, 0x000c
     ce0:	0000                	.insn	2, 0x
     ce2:	0000                	.insn	2, 0x
     ce4:	0000                	.insn	2, 0x
     ce6:	0700                	.insn	2, 0x0700
     ce8:	5f5f 0076 2c60      	.insn	6, 0x2c6000765f5f
     cee:	006c                	.insn	2, 0x006c
     cf0:	0000                	.insn	2, 0x
     cf2:	625f5f0b          	.insn	4, 0x625f5f0b
     cf6:	6000                	.insn	2, 0x6000
     cf8:	6c2c                	.insn	2, 0x6c2c
     cfa:	0000                	.insn	2, 0x
     cfc:	0800                	.insn	2, 0x0800
     cfe:	0000                	.insn	2, 0x
     d00:	5b04                	.insn	2, 0x5b04
     d02:	0004                	.insn	2, 0x0004
     d04:	5f00                	.insn	2, 0x5f00
	...
     d0e:	9c01                	.insn	2, 0x9c01
     d10:	04e8                	.insn	2, 0x04e8
     d12:	0000                	.insn	2, 0x
     d14:	000c                	.insn	2, 0x000c
     d16:	0000                	.insn	2, 0x
     d18:	0000                	.insn	2, 0x
     d1a:	0000                	.insn	2, 0x
     d1c:	0700                	.insn	2, 0x0700
     d1e:	5f5f 0076 2c5f      	.insn	6, 0x2c5f00765f5f
     d24:	006c                	.insn	2, 0x006c
     d26:	0000                	.insn	2, 0x
     d28:	5f1c                	.insn	2, 0x5f1c
     d2a:	625f 5f00 6c2c      	.insn	6, 0x6c2c5f00625f
     d30:	0000                	.insn	2, 0x
     d32:	0000                	.insn	2, 0x
     d34:	0008                	.insn	2, 0x0008
     d36:	0400                	.insn	2, 0x0400
     d38:	025d                	.insn	2, 0x025d
     d3a:	0000                	.insn	2, 0x
     d3c:	745e                	.insn	2, 0x745e
     d3e:	0005                	.insn	2, 0x0005
     d40:	0c00                	.insn	2, 0x0c00
     d42:	0000                	.insn	2, 0x
     d44:	0100                	.insn	2, 0x0100
     d46:	1e9c                	.insn	2, 0x1e9c
     d48:	0005                	.insn	2, 0x0005
     d4a:	0c00                	.insn	2, 0x0c00
     d4c:	0574                	.insn	2, 0x0574
     d4e:	0000                	.insn	2, 0x
     d50:	0008                	.insn	2, 0x0008
     d52:	0000                	.insn	2, 0x
     d54:	765f5f07          	.insn	4, 0x765f5f07
     d58:	5e00                	.insn	2, 0x5e00
     d5a:	6c2c                	.insn	2, 0x6c2c
     d5c:	0000                	.insn	2, 0x
     d5e:	0b00                	.insn	2, 0x0b00
     d60:	5f5f 0062 2c5e      	.insn	6, 0x2c5e00625f5f
     d66:	006c                	.insn	2, 0x006c
     d68:	0000                	.insn	2, 0x
     d6a:	0080                	.insn	2, 0x0080
     d6c:	0400                	.insn	2, 0x0400
     d6e:	01f4                	.insn	2, 0x01f4
     d70:	0000                	.insn	2, 0x
     d72:	685c                	.insn	2, 0x685c
     d74:	0005                	.insn	2, 0x0005
     d76:	0c00                	.insn	2, 0x0c00
     d78:	0000                	.insn	2, 0x
     d7a:	0100                	.insn	2, 0x0100
     d7c:	549c                	.insn	2, 0x549c
     d7e:	0005                	.insn	2, 0x0005
     d80:	0c00                	.insn	2, 0x0c00
     d82:	0568                	.insn	2, 0x0568
     d84:	0000                	.insn	2, 0x
     d86:	0008                	.insn	2, 0x0008
     d88:	0000                	.insn	2, 0x
     d8a:	765f5f07          	.insn	4, 0x765f5f07
     d8e:	5c00                	.insn	2, 0x5c00
     d90:	6c1e                	.insn	2, 0x6c1e
     d92:	0000                	.insn	2, 0x
     d94:	0b00                	.insn	2, 0x0b00
     d96:	5f5f 0062 1e5c      	.insn	6, 0x1e5c00625f5f
     d9c:	006c                	.insn	2, 0x006c
     d9e:	0000                	.insn	2, 0x
     da0:	0008                	.insn	2, 0x0008
     da2:	0400                	.insn	2, 0x0400
     da4:	000001bb          	.insn	4, 0x01bb
     da8:	00055c5b          	.insn	4, 0x00055c5b
     dac:	0c00                	.insn	2, 0x0c00
     dae:	0000                	.insn	2, 0x
     db0:	0100                	.insn	2, 0x0100
     db2:	8a9c                	.insn	2, 0x8a9c
     db4:	0005                	.insn	2, 0x0005
     db6:	0c00                	.insn	2, 0x0c00
     db8:	055c                	.insn	2, 0x055c
     dba:	0000                	.insn	2, 0x
     dbc:	0008                	.insn	2, 0x0008
     dbe:	0000                	.insn	2, 0x
     dc0:	765f5f07          	.insn	4, 0x765f5f07
     dc4:	5b00                	.insn	2, 0x5b00
     dc6:	6c1e                	.insn	2, 0x6c1e
     dc8:	0000                	.insn	2, 0x
     dca:	0b00                	.insn	2, 0x0b00
     dcc:	5f5f 0062 1e5b      	.insn	6, 0x1e5b00625f5f
     dd2:	006c                	.insn	2, 0x006c
     dd4:	0000                	.insn	2, 0x
     dd6:	0008                	.insn	2, 0x0008
     dd8:	0400                	.insn	2, 0x0400
     dda:	03b4                	.insn	2, 0x03b4
     ddc:	0000                	.insn	2, 0x
     dde:	00000053          	.insn	4, 0x0053
     de2:	0000                	.insn	2, 0x
     de4:	0000                	.insn	2, 0x
     de6:	0100                	.insn	2, 0x0100
     de8:	b99c                	.insn	2, 0xb99c
     dea:	0005                	.insn	2, 0x0005
     dec:	0600                	.insn	2, 0x0600
     dee:	7269                	.insn	2, 0x7269
     df0:	0071                	.insn	2, 0x0071
     df2:	006c2353          	.insn	4, 0x006c2353
     df6:	0000                	.insn	2, 0x
     df8:	03c9                	.insn	2, 0x03c9
     dfa:	0000                	.insn	2, 0x
     dfc:	6811                	.insn	2, 0x6811
     dfe:	5300                	.insn	2, 0x5300
     e00:	063a                	.insn	2, 0x063a
     e02:	0001                	.insn	2, 0x0001
     e04:	0100                	.insn	2, 0x0100
     e06:	8704005b          	.insn	4, 0x8704005b
     e0a:	4e000003          	lb	zero,1248(zero) # 4e0 <default_banner+0x30>
	...
     e16:	9c01                	.insn	2, 0x9c01
     e18:	05e9                	.insn	2, 0x05e9
     e1a:	0000                	.insn	2, 0x
     e1c:	ae2c                	.insn	2, 0xae2c
     e1e:	0000                	.insn	2, 0x
     e20:	0100                	.insn	2, 0x0100
     e22:	294e                	.insn	2, 0x294e
     e24:	006c                	.insn	2, 0x006c
     e26:	0000                	.insn	2, 0x
     e28:	03e2                	.insn	2, 0x03e2
     e2a:	0000                	.insn	2, 0x
     e2c:	6811                	.insn	2, 0x6811
     e2e:	4e00                	.insn	2, 0x4e00
     e30:	0000e543          	.insn	4, 0xe543
     e34:	0100                	.insn	2, 0x0100
     e36:	4804005b          	.insn	4, 0x4804005b
     e3a:	4c000003          	lb	zero,1216(zero) # 4c0 <default_banner+0x10>
	...
     e46:	9c01                	.insn	2, 0x9c01
     e48:	0609                	.insn	2, 0x0609
     e4a:	0000                	.insn	2, 0x
     e4c:	6811                	.insn	2, 0x6811
     e4e:	4c00                	.insn	2, 0x4c00
     e50:	0000e52f          	.insn	4, 0xe52f
     e54:	0100                	.insn	2, 0x0100
     e56:	005a                	.insn	2, 0x005a
     e58:	8304                	.insn	2, 0x8304
     e5a:	0000                	.insn	2, 0x
     e5c:	4b00                	.insn	2, 0x4b00
     e5e:	0554                	.insn	2, 0x0554
     e60:	0000                	.insn	2, 0x
     e62:	0008                	.insn	2, 0x0008
     e64:	0000                	.insn	2, 0x
     e66:	9c01                	.insn	2, 0x9c01
     e68:	0629                	.insn	2, 0x0629
     e6a:	0000                	.insn	2, 0x
     e6c:	6811                	.insn	2, 0x6811
     e6e:	4b00                	.insn	2, 0x4b00
     e70:	0000e52f          	.insn	4, 0xe52f
     e74:	0100                	.insn	2, 0x0100
     e76:	005a                	.insn	2, 0x005a
     e78:	5d1e                	.insn	2, 0x5d1e
     e7a:	01000003          	lb	zero,16(zero) # 10 <_start+0x10>
     e7e:	0d42                	.insn	2, 0x0d42
     e80:	4301                	.insn	2, 0x4301
     e82:	0006                	.insn	2, 0x0006
     e84:	1800                	.insn	2, 0x1800
     e86:	7269                	.insn	2, 0x7269
     e88:	0071                	.insn	2, 0x0071
     e8a:	4201                	.insn	2, 0x4201
     e8c:	6c22                	.insn	2, 0x6c22
     e8e:	0000                	.insn	2, 0x
     e90:	0000                	.insn	2, 0x
     e92:	d312                	.insn	2, 0xd312
     e94:	3c000003          	lb	zero,960(zero) # 3c0 <task_create+0x38>
     e98:	0510                	.insn	2, 0x0510
     e9a:	0000                	.insn	2, 0x
     e9c:	001c                	.insn	2, 0x001c
     e9e:	0000                	.insn	2, 0x
     ea0:	9c01                	.insn	2, 0x9c01
     ea2:	000006bb          	.insn	4, 0x06bb
     ea6:	6606                	.insn	2, 0x6606
     ea8:	3c00                	.insn	2, 0x3c00
     eaa:	00010137          	lui	sp,0x10
     eae:	fb00                	.insn	2, 0xfb00
     eb0:	19000003          	lb	zero,400(zero) # 190 <bsp_trap_entry+0x120>
     eb4:	081f 0000 0510      	.insn	6, 0x05100000081f
     eba:	0000                	.insn	2, 0x
     ebc:	0099                	.insn	2, 0x0099
     ebe:	0000                	.insn	2, 0x
     ec0:	9a3e                	.insn	2, 0x9a3e
     ec2:	0006                	.insn	2, 0x0006
     ec4:	2d00                	.insn	2, 0x2d00
     ec6:	0845                	.insn	2, 0x0845
     ec8:	0000                	.insn	2, 0x
     eca:	0510                	.insn	2, 0x0510
     ecc:	0000                	.insn	2, 0x
     ece:	0099                	.insn	2, 0x0099
     ed0:	0000                	.insn	2, 0x
     ed2:	5c02                	.insn	2, 0x5c02
     ed4:	0859012f          	.insn	4, 0x0859012f
     ed8:	0000                	.insn	2, 0x
     eda:	0414                	.insn	2, 0x0414
     edc:	0000                	.insn	2, 0x
     ede:	4e01                	.insn	2, 0x4e01
     ee0:	0008                	.insn	2, 0x0008
     ee2:	1e00                	.insn	2, 0x1e00
     ee4:	0004                	.insn	2, 0x0004
     ee6:	0000                	.insn	2, 0x
     ee8:	0900                	.insn	2, 0x0900
     eea:	052c                	.insn	2, 0x052c
     eec:	0000                	.insn	2, 0x
     eee:	0789                	.insn	2, 0x0789
     ef0:	0000                	.insn	2, 0x
     ef2:	0102                	.insn	2, 0x0102
     ef4:	095a                	.insn	2, 0x095a
     ef6:	0aa503a3          	sb	a0,167(a0)
     efa:	a826                	.insn	2, 0xa826
     efc:	a82d                	.insn	2, 0xa82d
     efe:	0200                	.insn	2, 0x0200
     f00:	5b01                	.insn	2, 0x5b01
     f02:	0305                	.insn	2, 0x0305
     f04:	0ae0                	.insn	2, 0x0ae0
     f06:	0000                	.insn	2, 0x
     f08:	0000                	.insn	2, 0x
     f0a:	f212                	.insn	2, 0xf212
     f0c:	31000003          	lb	zero,784(zero) # 310 <main+0x48>
     f10:	052c                	.insn	2, 0x052c
     f12:	0000                	.insn	2, 0x
     f14:	0028                	.insn	2, 0x0028
     f16:	0000                	.insn	2, 0x
     f18:	9c01                	.insn	2, 0x9c01
     f1a:	00000747          	.insn	4, 0x0747
     f1e:	6606                	.insn	2, 0x6606
     f20:	3100                	.insn	2, 0x3100
     f22:	0138                	.insn	2, 0x0138
     f24:	0001                	.insn	2, 0x0001
     f26:	2b00                	.insn	2, 0x2b00
     f28:	0004                	.insn	2, 0x0004
     f2a:	1900                	.insn	2, 0x1900
     f2c:	0845                	.insn	2, 0x0845
     f2e:	0000                	.insn	2, 0x
     f30:	052c                	.insn	2, 0x052c
     f32:	0000                	.insn	2, 0x
     f34:	00a8                	.insn	2, 0x00a8
     f36:	0000                	.insn	2, 0x
     f38:	00070137          	lui	sp,0x70
     f3c:	0100                	.insn	2, 0x0100
     f3e:	0859                	.insn	2, 0x0859
     f40:	0000                	.insn	2, 0x
     f42:	0444                	.insn	2, 0x0444
     f44:	0000                	.insn	2, 0x
     f46:	4e01                	.insn	2, 0x4e01
     f48:	0008                	.insn	2, 0x0008
     f4a:	4f00                	.insn	2, 0x4f00
     f4c:	0004                	.insn	2, 0x0004
     f4e:	0000                	.insn	2, 0x
     f50:	4519                	.insn	2, 0x4519
     f52:	0008                	.insn	2, 0x0008
     f54:	4000                	.insn	2, 0x4000
     f56:	0005                	.insn	2, 0x0005
     f58:	b400                	.insn	2, 0xb400
     f5a:	0000                	.insn	2, 0x
     f5c:	3800                	.insn	2, 0x3800
     f5e:	0726                	.insn	2, 0x0726
     f60:	0000                	.insn	2, 0x
     f62:	5901                	.insn	2, 0x5901
     f64:	0008                	.insn	2, 0x0008
     f66:	5d00                	.insn	2, 0x5d00
     f68:	0004                	.insn	2, 0x0004
     f6a:	0100                	.insn	2, 0x0100
     f6c:	084e                	.insn	2, 0x084e
     f6e:	0000                	.insn	2, 0x
     f70:	0468                	.insn	2, 0x0468
     f72:	0000                	.insn	2, 0x
     f74:	0900                	.insn	2, 0x0900
     f76:	0554                	.insn	2, 0x0554
     f78:	0000                	.insn	2, 0x
     f7a:	0789                	.insn	2, 0x0789
     f7c:	0000                	.insn	2, 0x
     f7e:	0102                	.insn	2, 0x0102
     f80:	095a                	.insn	2, 0x095a
     f82:	0aa503a3          	sb	a0,167(a0)
     f86:	a826                	.insn	2, 0xa826
     f88:	a82d                	.insn	2, 0xa82d
     f8a:	0200                	.insn	2, 0x0200
     f8c:	5b01                	.insn	2, 0x5b01
     f8e:	0305                	.insn	2, 0x0305
     f90:	0af0                	.insn	2, 0x0af0
     f92:	0000                	.insn	2, 0x
     f94:	0000                	.insn	2, 0x
     f96:	0f12                	.insn	2, 0x0f12
     f98:	0004                	.insn	2, 0x0004
     f9a:	2c00                	.insn	2, 0x2c00
     f9c:	04fc                	.insn	2, 0x04fc
     f9e:	0000                	.insn	2, 0x
     fa0:	0014                	.insn	2, 0x0014
     fa2:	0000                	.insn	2, 0x
     fa4:	9c01                	.insn	2, 0x9c01
     fa6:	0789                	.insn	2, 0x0789
     fa8:	0000                	.insn	2, 0x
     faa:	6606                	.insn	2, 0x6606
     fac:	2c00                	.insn	2, 0x2c00
     fae:	013c                	.insn	2, 0x013c
     fb0:	0001                	.insn	2, 0x0001
     fb2:	7600                	.insn	2, 0x7600
     fb4:	0004                	.insn	2, 0x0004
     fb6:	0900                	.insn	2, 0x0900
     fb8:	0510                	.insn	2, 0x0510
     fba:	0000                	.insn	2, 0x
     fbc:	0789                	.insn	2, 0x0789
     fbe:	0000                	.insn	2, 0x
     fc0:	0102                	.insn	2, 0x0102
     fc2:	095a                	.insn	2, 0x095a
     fc4:	0aa503a3          	sb	a0,167(a0)
     fc8:	a826                	.insn	2, 0xa826
     fca:	a82d                	.insn	2, 0xa82d
     fcc:	0200                	.insn	2, 0x0200
     fce:	5b01                	.insn	2, 0x5b01
     fd0:	0305                	.insn	2, 0x0305
     fd2:	0ad4                	.insn	2, 0x0ad4
     fd4:	0000                	.insn	2, 0x
     fd6:	0000                	.insn	2, 0x
     fd8:	2112                	.insn	2, 0x2112
     fda:	0004                	.insn	2, 0x0004
     fdc:	2000                	.insn	2, 0x2000
     fde:	04b0                	.insn	2, 0x04b0
     fe0:	0000                	.insn	2, 0x
     fe2:	004c                	.insn	2, 0x004c
     fe4:	0000                	.insn	2, 0x
     fe6:	9c01                	.insn	2, 0x9c01
     fe8:	07f8                	.insn	2, 0x07f8
     fea:	0000                	.insn	2, 0x
     fec:	6606                	.insn	2, 0x6606
     fee:	2000                	.insn	2, 0x2000
     ff0:	0139                	.insn	2, 0x0139
     ff2:	0001                	.insn	2, 0x0001
     ff4:	8f00                	.insn	2, 0x8f00
     ff6:	0004                	.insn	2, 0x0004
     ff8:	0600                	.insn	2, 0x0600
     ffa:	6174                	.insn	2, 0x6174
     ffc:	48200067          	jr	1154(zero) # 482 <sched_switch+0x46>
    1000:	019c                	.insn	2, 0x019c
    1002:	0000                	.insn	2, 0x
    1004:	049f 0000 d41f      	.insn	6, 0xd41f0000049f
    100a:	0004                	.insn	2, 0x0004
    100c:	8a00                	.insn	2, 0x8a00
    100e:	0001                	.insn	2, 0x0001
    1010:	d000                	.insn	2, 0xd000
    1012:	02000007          	.insn	4, 0x02000007
    1016:	5a01                	.insn	2, 0x5a01
    1018:	0305                	.insn	2, 0x0305
    101a:	0a80                	.insn	2, 0x0a80
    101c:	0000                	.insn	2, 0x
    101e:	1f00                	.insn	2, 0x1f00
    1020:	04dc                	.insn	2, 0x04dc
    1022:	0000                	.insn	2, 0x
    1024:	018a                	.insn	2, 0x018a
    1026:	0000                	.insn	2, 0x
    1028:	07e4                	.insn	2, 0x07e4
    102a:	0000                	.insn	2, 0x
    102c:	0102                	.insn	2, 0x0102
    102e:	025a                	.insn	2, 0x025a
    1030:	0079                	.insn	2, 0x0079
    1032:	0900                	.insn	2, 0x0900
    1034:	04f8                	.insn	2, 0x04f8
    1036:	0000                	.insn	2, 0x
    1038:	01ad                	.insn	2, 0x01ad
    103a:	0000                	.insn	2, 0x
    103c:	0102                	.insn	2, 0x0102
    103e:	055a                	.insn	2, 0x055a
    1040:	000a9803          	lh	a6,0(s5)
    1044:	0000                	.insn	2, 0x
    1046:	1e00                	.insn	2, 0x1e00
    1048:	03a6                	.insn	2, 0x03a6
    104a:	0000                	.insn	2, 0x
    104c:	5604                	.insn	2, 0x5604
    104e:	0314                	.insn	2, 0x0314
    1050:	0812                	.insn	2, 0x0812
    1052:	0000                	.insn	2, 0x
    1054:	6918                	.insn	2, 0x6918
    1056:	7172                	.insn	2, 0x7172
    1058:	0400                	.insn	2, 0x0400
    105a:	2b56                	.insn	2, 0x2b56
    105c:	006c                	.insn	2, 0x006c
    105e:	0000                	.insn	2, 0x
    1060:	2e00                	.insn	2, 0x2e00
    1062:	03c8                	.insn	2, 0x03c8
    1064:	0000                	.insn	2, 0x
    1066:	5104                	.insn	2, 0x5104
    1068:	6c18                	.insn	2, 0x6c18
    106a:	0000                	.insn	2, 0x
    106c:	0300                	.insn	2, 0x0300
    106e:	00032b2f          	.insn	4, 0x00032b2f
    1072:	0200                	.insn	2, 0x0200
    1074:	145c                	.insn	2, 0x145c
    1076:	00663003          	.insn	4, 0x00663003
    107a:	0000                	.insn	2, 0x
    107c:	6c184903          	lbu	s2,1729(a6)
    1080:	0000                	.insn	2, 0x
    1082:	0300                	.insn	2, 0x0300
    1084:	0845                	.insn	2, 0x0845
    1086:	0000                	.insn	2, 0x
    1088:	7e20                	.insn	2, 0x7e20
    108a:	0000                	.insn	2, 0x
    108c:	4900                	.insn	2, 0x4900
    108e:	7f2e                	.insn	2, 0x7f2e
    1090:	0000                	.insn	2, 0x
    1092:	0000                	.insn	2, 0x
    1094:	e631                	.insn	2, 0xe631
    1096:	0000                	.insn	2, 0x
    1098:	0300                	.insn	2, 0x0300
    109a:	1845                	.insn	2, 0x1845
    109c:	007e2003          	lw	zero,7(t3)
    10a0:	0000                	.insn	2, 0x
    10a2:	2f45                	.insn	2, 0x2f45
    10a4:	007f 0000 7618 0300 	.insn	10, 0x3e45030076180000007f
    10ac:	3e45 
    10ae:	006c                	.insn	2, 0x006c
    10b0:	0000                	.insn	2, 0x
    10b2:	0000                	.insn	2, 0x
    10b4:	0000054b          	.insn	4, 0x054b
    10b8:	0005                	.insn	2, 0x0005
    10ba:	0401                	.insn	2, 0x0401
    10bc:	06f6                	.insn	2, 0x06f6
    10be:	0000                	.insn	2, 0x
    10c0:	00010217          	auipc	tp,0x10
    10c4:	1d00                	.insn	2, 0x1d00
    10c6:	0166                	.insn	2, 0x0166
    10c8:	0000                	.insn	2, 0x
    10ca:	0000                	.insn	2, 0x
    10cc:	0000                	.insn	2, 0x
    10ce:	01bc                	.insn	2, 0x01bc
    10d0:	0000                	.insn	2, 0x
    10d2:	0000                	.insn	2, 0x
    10d4:	0000                	.insn	2, 0x
    10d6:	0e35                	.insn	2, 0x0e35
    10d8:	0000                	.insn	2, 0x
    10da:	0802                	.insn	2, 0x0802
    10dc:	0001ca07          	.insn	4, 0x0001ca07
    10e0:	0200                	.insn	2, 0x0200
    10e2:	0704                	.insn	2, 0x0704
    10e4:	01d4                	.insn	2, 0x01d4
    10e6:	0000                	.insn	2, 0x
    10e8:	0102                	.insn	2, 0x0102
    10ea:	9908                	.insn	2, 0x9908
    10ec:	0000                	.insn	2, 0x
    10ee:	0400                	.insn	2, 0x0400
    10f0:	04b6                	.insn	2, 0x04b6
    10f2:	0000                	.insn	2, 0x
    10f4:	471b2803          	lw	a6,1137(s6)
    10f8:	0000                	.insn	2, 0x
    10fa:	1800                	.insn	2, 0x1800
    10fc:	8004                	.insn	2, 0x8004
    10fe:	0004                	.insn	2, 0x0004
    1100:	0400                	.insn	2, 0x0400
    1102:	04bd                	.insn	2, 0x04bd
    1104:	0000                	.insn	2, 0x
    1106:	3b186703          	.insn	4, 0x3b186703
    110a:	0000                	.insn	2, 0x
    110c:	0200                	.insn	2, 0x0200
    110e:	0601                	.insn	2, 0x0601
    1110:	0000009b          	.insn	4, 0x009b
    1114:	0202                	.insn	2, 0x0202
    1116:	3605                	.insn	2, 0x3605
    1118:	0002                	.insn	2, 0x0002
    111a:	0400                	.insn	2, 0x0400
    111c:	0249                	.insn	2, 0x0249
    111e:	0000                	.insn	2, 0x
    1120:	2804                	.insn	2, 0x2804
    1122:	7318                	.insn	2, 0x7318
    1124:	0000                	.insn	2, 0x
    1126:	0200                	.insn	2, 0x0200
    1128:	0504                	.insn	2, 0x0504
    112a:	0218                	.insn	2, 0x0218
    112c:	0000                	.insn	2, 0x
    112e:	5e04                	.insn	2, 0x5e04
    1130:	0000                	.insn	2, 0x
    1132:	0400                	.insn	2, 0x0400
    1134:	0086182b          	.insn	4, 0x0086182b
    1138:	0000                	.insn	2, 0x
    113a:	0802                	.insn	2, 0x0802
    113c:	1305                	.insn	2, 0x1305
    113e:	0002                	.insn	2, 0x0002
    1140:	0400                	.insn	2, 0x0400
    1142:	01e1                	.insn	2, 0x01e1
    1144:	0000                	.insn	2, 0x
    1146:	2e04                	.insn	2, 0x2e04
    1148:	3418                	.insn	2, 0x3418
    114a:	0000                	.insn	2, 0x
    114c:	0200                	.insn	2, 0x0200
    114e:	0702                	.insn	2, 0x0702
    1150:	00b4                	.insn	2, 0x00b4
    1152:	0000                	.insn	2, 0x
    1154:	4804                	.insn	2, 0x4804
    1156:	0002                	.insn	2, 0x0002
    1158:	0400                	.insn	2, 0x0400
    115a:	1934                	.insn	2, 0x1934
    115c:	00ac                	.insn	2, 0x00ac
    115e:	0000                	.insn	2, 0x
    1160:	0402                	.insn	2, 0x0402
    1162:	0001cf07          	.insn	4, 0x0001cf07
    1166:	1900                	.insn	2, 0x1900
    1168:	0504                	.insn	2, 0x0504
    116a:	6e69                	.insn	2, 0x6e69
    116c:	0074                	.insn	2, 0x0074
    116e:	3004                	.insn	2, 0x3004
    1170:	0000                	.insn	2, 0x
    1172:	0400                	.insn	2, 0x0400
    1174:	1a56                	.insn	2, 0x1a56
    1176:	002d                	.insn	2, 0x002d
    1178:	0000                	.insn	2, 0x
    117a:	000e                	.insn	2, 0x000e
    117c:	0000                	.insn	2, 0x
    117e:	5300                	.insn	2, 0x5300
    1180:	000000b3          	add	ra,zero,zero
    1184:	07a8                	.insn	2, 0x07a8
    1186:	0000                	.insn	2, 0x
    1188:	0238                	.insn	2, 0x0238
    118a:	0000                	.insn	2, 0x
    118c:	9c01                	.insn	2, 0x9c01
    118e:	000002d3          	.insn	4, 0x02d3
    1192:	6608                	.insn	2, 0x6608
    1194:	746d                	.insn	2, 0x746d
    1196:	5300                	.insn	2, 0x5300
    1198:	d31d                	.insn	2, 0xd31d
    119a:	0002                	.insn	2, 0x0002
    119c:	bb00                	.insn	2, 0xbb00
    119e:	0004                	.insn	2, 0x0004
    11a0:	1a00                	.insn	2, 0x1a00
    11a2:	6109                	.insn	2, 0x6109
    11a4:	0070                	.insn	2, 0x0070
    11a6:	0d55                	.insn	2, 0x0d55
    11a8:	004d                	.insn	2, 0x004d
    11aa:	0000                	.insn	2, 0x
    11ac:	7fbc9103          	lh	sp,2043(s9)
    11b0:	ac0a                	.insn	2, 0xac0a
    11b2:	0004                	.insn	2, 0x0004
    11b4:	5800                	.insn	2, 0x5800
    11b6:	b309                	.insn	2, 0xb309
    11b8:	0000                	.insn	2, 0x
    11ba:	d500                	.insn	2, 0xd500
    11bc:	0004                	.insn	2, 0x0004
    11be:	0a00                	.insn	2, 0x0a00
    11c0:	04fd                	.insn	2, 0x04fd
    11c2:	0000                	.insn	2, 0x
    11c4:	0a59                	.insn	2, 0x0a59
    11c6:	02d9                	.insn	2, 0x02d9
    11c8:	0000                	.insn	2, 0x
    11ca:	051a                	.insn	2, 0x051a
    11cc:	0000                	.insn	2, 0x
    11ce:	00027d1b          	.insn	4, 0x00027d1b
    11d2:	0100                	.insn	2, 0x0100
    11d4:	0199                	.insn	2, 0x0199
    11d6:	0814                	.insn	2, 0x0814
    11d8:	0000                	.insn	2, 0x
    11da:	8b1c                	.insn	2, 0x8b1c
    11dc:	0001                	.insn	2, 0x0001
    11de:	0b00                	.insn	2, 0x0b00
    11e0:	0070                	.insn	2, 0x0070
    11e2:	02d3165b          	.insn	4, 0x02d3165b
    11e6:	0000                	.insn	2, 0x
    11e8:	00000563          	beqz	zero,11f2 <_data_lma+0x686>
    11ec:	201d                	.insn	2, 0x201d
    11ee:	0009                	.insn	2, 0x0009
    11f0:	2400                	.insn	2, 0x2400
    11f2:	0000                	.insn	2, 0x
    11f4:	5c00                	.insn	2, 0x5c00
    11f6:	0001                	.insn	2, 0x0001
    11f8:	0b00                	.insn	2, 0x0b00
    11fa:	197b0073          	.insn	4, 0x197b0073
    11fe:	000002d3          	.insn	4, 0x02d3
    1202:	000005a3          	sb	zero,11(zero) # b <_start+0xb>
    1206:	0009400f          	.insn	4, 0x0009400f
    120a:	5c00                	.insn	2, 0x5c00
    120c:	0004                	.insn	2, 0x0004
    120e:	0000                	.insn	2, 0x
    1210:	bb0c                	.insn	2, 0xbb0c
    1212:	0004                	.insn	2, 0x0004
    1214:	4400                	.insn	2, 0x4400
    1216:	0008                	.insn	2, 0x0008
    1218:	0800                	.insn	2, 0x0800
    121a:	0000                	.insn	2, 0x
    121c:	7500                	.insn	2, 0x7500
    121e:	019a                	.insn	2, 0x019a
    1220:	0000                	.insn	2, 0x
    1222:	c801                	.insn	2, 0xc801
    1224:	0004                	.insn	2, 0x0004
    1226:	ac00                	.insn	2, 0xac00
    1228:	0005                	.insn	2, 0x0005
    122a:	0300                	.insn	2, 0x0300
    122c:	04f1                	.insn	2, 0x04f1
    122e:	0000                	.insn	2, 0x
    1230:	0844                	.insn	2, 0x0844
    1232:	0000                	.insn	2, 0x
    1234:	0008                	.insn	2, 0x0008
    1236:	0000                	.insn	2, 0x
    1238:	0511                	.insn	2, 0x0511
    123a:	0a01                	.insn	2, 0x0a01
    123c:	0005                	.insn	2, 0x0005
    123e:	ac00                	.insn	2, 0xac00
    1240:	0005                	.insn	2, 0x0005
    1242:	0100                	.insn	2, 0x0100
    1244:	04fe                	.insn	2, 0x04fe
    1246:	0000                	.insn	2, 0x
    1248:	000005b7          	lui	a1,0x0
    124c:	0000                	.insn	2, 0x
    124e:	bb0c                	.insn	2, 0xbb0c
    1250:	0004                	.insn	2, 0x0004
    1252:	a400                	.insn	2, 0xa400
    1254:	0008                	.insn	2, 0x0008
    1256:	0c00                	.insn	2, 0x0c00
    1258:	0000                	.insn	2, 0x
    125a:	9300                	.insn	2, 0x9300
    125c:	01d8                	.insn	2, 0x01d8
    125e:	0000                	.insn	2, 0x
    1260:	c801                	.insn	2, 0xc801
    1262:	0004                	.insn	2, 0x0004
    1264:	c400                	.insn	2, 0xc400
    1266:	0005                	.insn	2, 0x0005
    1268:	0300                	.insn	2, 0x0300
    126a:	04f1                	.insn	2, 0x04f1
    126c:	0000                	.insn	2, 0x
    126e:	08a4                	.insn	2, 0x08a4
    1270:	0000                	.insn	2, 0x
    1272:	000c                	.insn	2, 0x000c
    1274:	0000                	.insn	2, 0x
    1276:	0511                	.insn	2, 0x0511
    1278:	0a01                	.insn	2, 0x0a01
    127a:	0005                	.insn	2, 0x0005
    127c:	c400                	.insn	2, 0xc400
    127e:	0005                	.insn	2, 0x0005
    1280:	0100                	.insn	2, 0x0100
    1282:	04fe                	.insn	2, 0x04fe
    1284:	0000                	.insn	2, 0x
    1286:	000005cf          	.insn	4, 0x05cf
    128a:	0000                	.insn	2, 0x
    128c:	bb10                	.insn	2, 0xbb10
    128e:	0004                	.insn	2, 0x0004
    1290:	b000                	.insn	2, 0xb000
    1292:	0008                	.insn	2, 0x0008
    1294:	9800                	.insn	2, 0x9800
    1296:	0001                	.insn	2, 0x0001
    1298:	9400                	.insn	2, 0x9400
    129a:	0216                	.insn	2, 0x0216
    129c:	0000                	.insn	2, 0x
    129e:	c801                	.insn	2, 0xc801
    12a0:	0004                	.insn	2, 0x0004
    12a2:	dc00                	.insn	2, 0xdc00
    12a4:	0005                	.insn	2, 0x0005
    12a6:	0300                	.insn	2, 0x0300
    12a8:	04f1                	.insn	2, 0x04f1
    12aa:	0000                	.insn	2, 0x
    12ac:	0974                	.insn	2, 0x0974
    12ae:	0000                	.insn	2, 0x
    12b0:	0004                	.insn	2, 0x0004
    12b2:	0000                	.insn	2, 0x
    12b4:	0511                	.insn	2, 0x0511
    12b6:	0a01                	.insn	2, 0x0a01
    12b8:	0005                	.insn	2, 0x0005
    12ba:	e600                	.insn	2, 0xe600
    12bc:	0005                	.insn	2, 0x0005
    12be:	0100                	.insn	2, 0x0100
    12c0:	04fe                	.insn	2, 0x04fe
    12c2:	0000                	.insn	2, 0x
    12c4:	000005ef          	jal	a1,12c4 <_data_lma+0x758>
    12c8:	0000                	.insn	2, 0x
    12ca:	e510                	.insn	2, 0xe510
    12cc:	0002                	.insn	2, 0x0002
    12ce:	dc00                	.insn	2, 0xdc00
    12d0:	0008                	.insn	2, 0x0008
    12d2:	ab00                	.insn	2, 0xab00
    12d4:	0001                	.insn	2, 0x0001
    12d6:	8200                	.insn	2, 0x8200
    12d8:	0000027b          	.insn	4, 0x027b
    12dc:	0a01                	.insn	2, 0x0a01
    12de:	fc000003          	lb	zero,-64(zero) # ffffffc0 <__stack_top+0xdffbffc0>
    12e2:	0005                	.insn	2, 0x0005
    12e4:	0100                	.insn	2, 0x0100
    12e6:	02fe                	.insn	2, 0x02fe
    12e8:	0000                	.insn	2, 0x
    12ea:	060e                	.insn	2, 0x060e
    12ec:	0000                	.insn	2, 0x
    12ee:	f211                	.insn	2, 0xf211
    12f0:	0002                	.insn	2, 0x0002
    12f2:	0300                	.insn	2, 0x0300
    12f4:	000004bb          	.insn	4, 0x04bb
    12f8:	08e8                	.insn	2, 0x08e8
    12fa:	0000                	.insn	2, 0x
    12fc:	000c                	.insn	2, 0x000c
    12fe:	0000                	.insn	2, 0x
    1300:	c801094b          	.insn	4, 0xc801094b
    1304:	0004                	.insn	2, 0x0004
    1306:	2000                	.insn	2, 0x2000
    1308:	0006                	.insn	2, 0x0006
    130a:	0300                	.insn	2, 0x0300
    130c:	04f1                	.insn	2, 0x04f1
    130e:	0000                	.insn	2, 0x
    1310:	08e8                	.insn	2, 0x08e8
    1312:	0000                	.insn	2, 0x
    1314:	000c                	.insn	2, 0x000c
    1316:	0000                	.insn	2, 0x
    1318:	0511                	.insn	2, 0x0511
    131a:	0a01                	.insn	2, 0x0a01
    131c:	0005                	.insn	2, 0x0005
    131e:	2000                	.insn	2, 0x2000
    1320:	0006                	.insn	2, 0x0006
    1322:	0100                	.insn	2, 0x0100
    1324:	04fe                	.insn	2, 0x04fe
    1326:	0000                	.insn	2, 0x
    1328:	0000062b          	.insn	4, 0x062b
    132c:	0000                	.insn	2, 0x
    132e:	0c00                	.insn	2, 0x0c00
    1330:	000004bb          	.insn	4, 0x04bb
    1334:	096c                	.insn	2, 0x096c
    1336:	0000                	.insn	2, 0x
    1338:	0008                	.insn	2, 0x0008
    133a:	0000                	.insn	2, 0x
    133c:	b578                	.insn	2, 0xb578
    133e:	0002                	.insn	2, 0x0002
    1340:	1100                	.insn	2, 0x1100
    1342:	04c8                	.insn	2, 0x04c8
    1344:	0000                	.insn	2, 0x
    1346:	0004f103          	.insn	4, 0x0004f103
    134a:	7000                	.insn	2, 0x7000
    134c:	0009                	.insn	2, 0x0009
    134e:	0400                	.insn	2, 0x0400
    1350:	0000                	.insn	2, 0x
    1352:	1100                	.insn	2, 0x1100
    1354:	0105                	.insn	2, 0x0105
    1356:	050a                	.insn	2, 0x050a
    1358:	0000                	.insn	2, 0x
    135a:	0638                	.insn	2, 0x0638
    135c:	0000                	.insn	2, 0x
    135e:	fe01                	.insn	2, 0xfe01
    1360:	0004                	.insn	2, 0x0004
    1362:	4100                	.insn	2, 0x4100
    1364:	0006                	.insn	2, 0x0006
    1366:	0000                	.insn	2, 0x
    1368:	0f00                	.insn	2, 0x0f00
    136a:	0904                	.insn	2, 0x0904
    136c:	0000                	.insn	2, 0x
    136e:	00000317          	auipc	t1,0x0
    1372:	c81e                	.insn	2, 0xc81e
    1374:	0009                	.insn	2, 0x0009
    1376:	5c00                	.insn	2, 0x5c00
    1378:	0004                	.insn	2, 0x0004
    137a:	1f00                	.insn	2, 0x1f00
    137c:	5a01                	.insn	2, 0x5a01
    137e:	0305                	.insn	2, 0x0305
    1380:	0b40                	.insn	2, 0x0b40
    1382:	0000                	.insn	2, 0x
    1384:	0000                	.insn	2, 0x
    1386:	2000                	.insn	2, 0x2000
    1388:	e004                	.insn	2, 0xe004
    138a:	0002                	.insn	2, 0x0002
    138c:	0200                	.insn	2, 0x0200
    138e:	0801                	.insn	2, 0x0801
    1390:	00a2                	.insn	2, 0x00a2
    1392:	0000                	.insn	2, 0x
    1394:	d912                	.insn	2, 0xd912
    1396:	0002                	.insn	2, 0x0002
    1398:	1300                	.insn	2, 0x1300
    139a:	000004eb          	.insn	4, 0x04eb
    139e:	4801                	.insn	2, 0x4801
    13a0:	010d                	.insn	2, 0x010d
    13a2:	00000317          	auipc	t1,0x0
    13a6:	760d                	.insn	2, 0x760d
    13a8:	6c61                	.insn	2, 0x6c61
    13aa:	0100                	.insn	2, 0x0100
    13ac:	1d48                	.insn	2, 0x1d48
    13ae:	00000067          	jr	zero # 0 <_start>
    13b2:	ac05                	.insn	2, 0xac05
    13b4:	0004                	.insn	2, 0x0004
    13b6:	0100                	.insn	2, 0x0100
    13b8:	2648                	.insn	2, 0x2648
    13ba:	000000b3          	add	ra,zero,zero
    13be:	fd05                	.insn	2, 0xfd05
    13c0:	0004                	.insn	2, 0x0004
    13c2:	0100                	.insn	2, 0x0100
    13c4:	3648                	.insn	2, 0x3648
    13c6:	02d9                	.insn	2, 0x02d9
    13c8:	0000                	.insn	2, 0x
    13ca:	2100                	.insn	2, 0x2100
    13cc:	000004d7          	.insn	4, 0x04d7
    13d0:	2b01                	.insn	2, 0x2b01
    13d2:	d00d                	.insn	2, 0xd00d
    13d4:	0006                	.insn	2, 0x0006
    13d6:	bc00                	.insn	2, 0xbc00
    13d8:	0000                	.insn	2, 0x
    13da:	0100                	.insn	2, 0x0100
    13dc:	fa9c                	.insn	2, 0xfa9c
    13de:	08000003          	lb	zero,128(zero) # 80 <bsp_trap_entry+0x10>
    13e2:	6176                	.insn	2, 0x6176
    13e4:	006c                	.insn	2, 0x006c
    13e6:	00a01f2b          	.insn	4, 0x00a01f2b
    13ea:	0000                	.insn	2, 0x
    13ec:	064e                	.insn	2, 0x064e
    13ee:	0000                	.insn	2, 0x
    13f0:	d206                	.insn	2, 0xd206
    13f2:	0004                	.insn	2, 0x0004
    13f4:	2d00                	.insn	2, 0x2d00
    13f6:	00a0                	.insn	2, 0x00a0
    13f8:	0000                	.insn	2, 0x
    13fa:	0661                	.insn	2, 0x0661
    13fc:	0000                	.insn	2, 0x
    13fe:	e006                	.insn	2, 0xe006
    1400:	0004                	.insn	2, 0x0004
    1402:	3700                	.insn	2, 0x3700
    1404:	000000b3          	add	ra,zero,zero
    1408:	0690                	.insn	2, 0x0690
    140a:	0000                	.insn	2, 0x
    140c:	ac06                	.insn	2, 0xac06
    140e:	0004                	.insn	2, 0x0004
    1410:	4700                	.insn	2, 0x4700
    1412:	000000b3          	add	ra,zero,zero
    1416:	06bd                	.insn	2, 0x06bd
    1418:	0000                	.insn	2, 0x
    141a:	fd06                	.insn	2, 0xfd06
    141c:	0004                	.insn	2, 0x0004
    141e:	5700                	.insn	2, 0x5700
    1420:	02d9                	.insn	2, 0x02d9
    1422:	0000                	.insn	2, 0x
    1424:	06ec                	.insn	2, 0x06ec
    1426:	0000                	.insn	2, 0x
    1428:	9f14                	.insn	2, 0x9f14
    142a:	0004                	.insn	2, 0x0004
    142c:	2d00                	.insn	2, 0x2d00
    142e:	040a                	.insn	2, 0x040a
    1430:	0000                	.insn	2, 0x
    1432:	0305                	.insn	2, 0x0305
    1434:	0b44                	.insn	2, 0x0b44
    1436:	0000                	.insn	2, 0x
    1438:	9214                	.insn	2, 0x9214
    143a:	0004                	.insn	2, 0x0004
    143c:	2e00                	.insn	2, 0x2e00
    143e:	040a                	.insn	2, 0x040a
    1440:	0000                	.insn	2, 0x
    1442:	0305                	.insn	2, 0x0305
    1444:	0b58                	.insn	2, 0x0b58
    1446:	0000                	.insn	2, 0x
    1448:	790a                	.insn	2, 0x790a
    144a:	0004                	.insn	2, 0x0004
    144c:	2f00                	.insn	2, 0x2f00
    144e:	d311                	.insn	2, 0xd311
    1450:	0002                	.insn	2, 0x0002
    1452:	1b00                	.insn	2, 0x1b00
    1454:	09000007          	.insn	4, 0x09000007
    1458:	7562                	.insn	2, 0x7562
    145a:	0066                	.insn	2, 0x0066
    145c:	040f0a33          	.insn	4, 0x040f0a33
    1460:	0000                	.insn	2, 0x
    1462:	9102                	.insn	2, 0x9102
    1464:	0b5c                	.insn	2, 0x0b5c
    1466:	0069                	.insn	2, 0x0069
    1468:	0934                	.insn	2, 0x0934
    146a:	000000b3          	add	ra,zero,zero
    146e:	072c                	.insn	2, 0x072c
    1470:	0000                	.insn	2, 0x
    1472:	0004bb07          	.insn	4, 0x0004bb07
    1476:	0800                	.insn	2, 0x0800
    1478:	56000007          	.insn	4, 0x56000007
    147c:	0001                	.insn	2, 0x0001
    147e:	4400                	.insn	2, 0x4400
    1480:	0109                	.insn	2, 0x0109
    1482:	04c8                	.insn	2, 0x04c8
    1484:	0000                	.insn	2, 0x
    1486:	0762                	.insn	2, 0x0762
    1488:	0000                	.insn	2, 0x
    148a:	0004f107          	.insn	4, 0x0004f107
    148e:	0800                	.insn	2, 0x0800
    1490:	66000007          	.insn	4, 0x66000007
    1494:	0001                	.insn	2, 0x0001
    1496:	1100                	.insn	2, 0x1100
    1498:	0105                	.insn	2, 0x0105
    149a:	050a                	.insn	2, 0x050a
    149c:	0000                	.insn	2, 0x
    149e:	0772                	.insn	2, 0x0772
    14a0:	0000                	.insn	2, 0x
    14a2:	fe01                	.insn	2, 0xfe01
    14a4:	0004                	.insn	2, 0x0004
    14a6:	7b00                	.insn	2, 0x7b00
    14a8:	00000007          	.insn	4, 0x0007
    14ac:	0000                	.insn	2, 0x
    14ae:	e015                	.insn	2, 0xe015
    14b0:	0002                	.insn	2, 0x0002
    14b2:	0a00                	.insn	2, 0x0a00
    14b4:	0004                	.insn	2, 0x0004
    14b6:	1600                	.insn	2, 0x1600
    14b8:	002d                	.insn	2, 0x002d
    14ba:	0000                	.insn	2, 0x
    14bc:	0010                	.insn	2, 0x0010
    14be:	fa12                	.insn	2, 0xfa12
    14c0:	15000003          	lb	zero,336(zero) # 150 <bsp_trap_entry+0xe0>
    14c4:	02d9                	.insn	2, 0x02d9
    14c6:	0000                	.insn	2, 0x
    14c8:	041f 0000 2d16      	.insn	6, 0x2d160000041f
    14ce:	0000                	.insn	2, 0x
    14d0:	2000                	.insn	2, 0x2000
    14d2:	0e00                	.insn	2, 0x0e00
    14d4:	04c5                	.insn	2, 0x04c5
    14d6:	0000                	.insn	2, 0x
    14d8:	0000b31b          	.insn	4, 0xb31b
	...
    14e4:	0100                	.insn	2, 0x0100
    14e6:	5c9c                	.insn	2, 0x5c9c
    14e8:	0004                	.insn	2, 0x0004
    14ea:	0900                	.insn	2, 0x0900
    14ec:	0076                	.insn	2, 0x0076
    14ee:	0e1d                	.insn	2, 0x0e1d
    14f0:	00a0                	.insn	2, 0x00a0
    14f2:	0000                	.insn	2, 0x
    14f4:	5f01                	.insn	2, 0x5f01
    14f6:	0004d303          	lhu	t1,0(s1)
	...
    1502:	1d00                	.insn	2, 0x1d00
    1504:	0112                	.insn	2, 0x0112
    1506:	04e4                	.insn	2, 0x04e4
    1508:	0000                	.insn	2, 0x
    150a:	0788                	.insn	2, 0x0788
    150c:	0000                	.insn	2, 0x
    150e:	0000                	.insn	2, 0x
    1510:	8222                	.insn	2, 0x8222
    1512:	0002                	.insn	2, 0x0002
    1514:	0100                	.insn	2, 0x0100
    1516:	0614                	.insn	2, 0x0614
    1518:	078c                	.insn	2, 0x078c
    151a:	0000                	.insn	2, 0x
    151c:	001c                	.insn	2, 0x001c
    151e:	0000                	.insn	2, 0x
    1520:	9c01                	.insn	2, 0x9c01
    1522:	000004bb          	.insn	4, 0x04bb
    1526:	7308                	.insn	2, 0x7308
    1528:	1400                	.insn	2, 0x1400
    152a:	d31c                	.insn	2, 0xd31c
    152c:	0002                	.insn	2, 0x0002
    152e:	9500                	.insn	2, 0x9500
    1530:	07000007          	.insn	4, 0x07000007
    1534:	000004bb          	.insn	4, 0x04bb
    1538:	078c                	.insn	2, 0x078c
    153a:	0000                	.insn	2, 0x
    153c:	00000173          	.insn	4, 0x0173
    1540:	c8010917          	auipc	s2,0xc8010
    1544:	0004                	.insn	2, 0x0004
    1546:	a500                	.insn	2, 0xa500
    1548:	07000007          	.insn	4, 0x07000007
    154c:	04f1                	.insn	2, 0x04f1
    154e:	0000                	.insn	2, 0x
    1550:	078c                	.insn	2, 0x078c
    1552:	0000                	.insn	2, 0x
    1554:	017f 0000 0511 0a01 	.insn	10, 0x00050a0105110000017f
    155c:	0005 
    155e:	a500                	.insn	2, 0xa500
    1560:	01000007          	.insn	4, 0x01000007
    1564:	04fe                	.insn	2, 0x04fe
    1566:	0000                	.insn	2, 0x
    1568:	07ae                	.insn	2, 0x07ae
    156a:	0000                	.insn	2, 0x
    156c:	0000                	.insn	2, 0x
    156e:	2300                	.insn	2, 0x2300
    1570:	000004f3          	.insn	4, 0x04f3
    1574:	0f01                	.insn	2, 0x0f01
    1576:	0106                	.insn	2, 0x0106
    1578:	000004d3          	.insn	4, 0x04d3
    157c:	630d                	.insn	2, 0x630d
    157e:	0100                	.insn	2, 0x0100
    1580:	02d9150f          	.insn	4, 0x02d9150f
    1584:	0000                	.insn	2, 0x
    1586:	2400                	.insn	2, 0x2400
    1588:	0066                	.insn	2, 0x0066
    158a:	0000                	.insn	2, 0x
    158c:	4902                	.insn	2, 0x4902
    158e:	a018                	.insn	2, 0xa018
    1590:	0000                	.insn	2, 0x
    1592:	0300                	.insn	2, 0x0300
    1594:	04f1                	.insn	2, 0x04f1
    1596:	0000                	.insn	2, 0x
    1598:	7e05                	.insn	2, 0x7e05
    159a:	0000                	.insn	2, 0x
    159c:	0200                	.insn	2, 0x0200
    159e:	2e49                	.insn	2, 0x2e49
    15a0:	00ba                	.insn	2, 0x00ba
    15a2:	0000                	.insn	2, 0x
    15a4:	1300                	.insn	2, 0x1300
    15a6:	00e6                	.insn	2, 0x00e6
    15a8:	0000                	.insn	2, 0x
    15aa:	4502                	.insn	2, 0x4502
    15ac:	0318                	.insn	2, 0x0318
    15ae:	0515                	.insn	2, 0x0515
    15b0:	0000                	.insn	2, 0x
    15b2:	7e05                	.insn	2, 0x7e05
    15b4:	0000                	.insn	2, 0x
    15b6:	0200                	.insn	2, 0x0200
    15b8:	2f45                	.insn	2, 0x2f45
    15ba:	00ba                	.insn	2, 0x00ba
    15bc:	0000                	.insn	2, 0x
    15be:	760d                	.insn	2, 0x760d
    15c0:	0200                	.insn	2, 0x0200
    15c2:	3e45                	.insn	2, 0x3e45
    15c4:	00a0                	.insn	2, 0x00a0
    15c6:	0000                	.insn	2, 0x
    15c8:	2500                	.insn	2, 0x2500
    15ca:	000004bb          	.insn	4, 0x04bb
	...
    15d6:	9c01                	.insn	2, 0x9c01
    15d8:	c826                	.insn	2, 0xc826
    15da:	0004                	.insn	2, 0x0004
    15dc:	0100                	.insn	2, 0x0100
    15de:	035a                	.insn	2, 0x035a
    15e0:	04f1                	.insn	2, 0x04f1
	...
    15ea:	0000                	.insn	2, 0x
    15ec:	0511                	.insn	2, 0x0511
    15ee:	0a01                	.insn	2, 0x0a01
    15f0:	0005                	.insn	2, 0x0005
    15f2:	bb00                	.insn	2, 0xbb00
    15f4:	01000007          	.insn	4, 0x01000007
    15f8:	04fe                	.insn	2, 0x04fe
    15fa:	0000                	.insn	2, 0x
    15fc:	07cd                	.insn	2, 0x07cd
    15fe:	0000                	.insn	2, 0x
    1600:	0000                	.insn	2, 0x
    1602:	2d00                	.insn	2, 0x2d00
    1604:	0000                	.insn	2, 0x
    1606:	0500                	.insn	2, 0x0500
    1608:	0100                	.insn	2, 0x0100
    160a:	2d04                	.insn	2, 0x2d04
    160c:	0009                	.insn	2, 0x0009
    160e:	0100                	.insn	2, 0x0100
    1610:	14b1                	.insn	2, 0x14b1
    1612:	0000                	.insn	2, 0x
    1614:	0000                	.insn	2, 0x
    1616:	0000                	.insn	2, 0x
    1618:	066c                	.insn	2, 0x066c
    161a:	0005                	.insn	2, 0x0005
    161c:	f600                	.insn	2, 0xf600
    161e:	0002                	.insn	2, 0x0002
    1620:	1f00                	.insn	2, 0x1f00
    1622:	01000003          	lb	zero,16(zero) # 10 <_start+0x10>
    1626:	0280                	.insn	2, 0x0280
    1628:	052e                	.insn	2, 0x052e
    162a:	0000                	.insn	2, 0x
    162c:	0000002f          	.insn	4, 0x002f
    1630:	6c00                	.insn	2, 0x6c00
    1632:	002f0003          	lb	zero,2(t5)
    1636:	0000                	.insn	2, 0x
    1638:	0005                	.insn	2, 0x0005
    163a:	0401                	.insn	2, 0x0401
    163c:	0955                	.insn	2, 0x0955
    163e:	0000                	.insn	2, 0x
    1640:	6701                	.insn	2, 0x6701
    1642:	0015                	.insn	2, 0x0015
    1644:	7000                	.insn	2, 0x7000
    1646:	0000                	.insn	2, 0x
    1648:	d000                	.insn	2, 0xd000
    164a:	3502                	.insn	2, 0x3502
    164c:	0005                	.insn	2, 0x0005
    164e:	f600                	.insn	2, 0xf600
    1650:	0002                	.insn	2, 0x0002
    1652:	1f00                	.insn	2, 0x1f00
    1654:	01000003          	lb	zero,16(zero) # 10 <_start+0x10>
    1658:	0280                	.insn	2, 0x0280
    165a:	0400                	.insn	2, 0x0400
    165c:	0000                	.insn	2, 0x
    165e:	7031                	.insn	2, 0x7031
    1660:	0000                	.insn	2, 0x
    1662:	c400                	.insn	2, 0xc400
    1664:	0302                	.insn	2, 0x0302
	...

Disassembly of section .debug_abbrev:

00000000 <.debug_abbrev>:
    la      gp, __global_pointer$
   0:	4901                	.insn	2, 0x4901
   2:	0200                	.insn	2, 0x0200
   4:	7e18                	.insn	2, 0x7e18
   6:	0018                	.insn	2, 0x0018
    la      sp, __stack_top
   8:	0200                	.insn	2, 0x0200
   a:	0024                	.insn	2, 0x0024
   c:	0b3e0b0b          	.insn	4, 0x0b3e0b0b
    la      a0, _data_lma
  10:	00000e03          	lb	t3,0(zero) # 0 <_start>
  14:	7d004803          	lbu	a6,2000(zero) # 7d0 <uart_printf+0x28>
    la      a1, _data
  18:	7f01                	.insn	2, 0x7f01
  1a:	04000013          	li	zero,64
  1e:	0148                	.insn	2, 0x0148
    la      a2, _edata
  20:	017d                	.insn	2, 0x017d
  22:	1301137f 05050000 	.insn	12, 0x02133100050500001301137f
  2a:	02133100 
    lw      t0, 0(a0)
  2e:	06000017          	auipc	zero,0x6000
    sw      t0, 0(a1)
  32:	002e                	.insn	2, 0x002e
    addi    a0, a0, 4
  34:	0e03193f 0b3b0b3a 	.insn	8, 0x0b3b0b3a0e03193f
    bltu    a1, a2, 1b
  3c:	2139                	.insn	2, 0x2139
  3e:	2706                	.insn	2, 0x2706
    la      a0, _fbss
  40:	3c19                	.insn	2, 0x3c19
  42:	0019                	.insn	2, 0x0019
  44:	0700                	.insn	2, 0x0700
  46:	0016                	.insn	2, 0x0016
    la      a1, _end
  48:	0b3a0e03          	lb	t3,179(s4)
  4c:	0b390b3b          	.insn	4, 0x0b390b3b
    bgeu    a0, a1, 2f
  50:	1349                	.insn	2, 0x1349
  52:	0000                	.insn	2, 0x
    sw      zero, 0(a0)
  54:	0508                	.insn	2, 0x0508
  56:	4900                	.insn	2, 0x4900
    addi    a0, a0, 4
  58:	09000013          	li	zero,144
    bltu    a0, a1, 1b
  5c:	000d                	.insn	2, 0x000d
  5e:	213a0e03          	lb	t3,531(s4)
    call    main
  62:	3b05                	.insn	2, 0x3b05
    j       .L_halt
  64:	0e21390b          	.insn	4, 0x0e21390b
  68:	1349                	.insn	2, 0x1349
  6a:	0b38                	.insn	2, 0x0b38
  6c:	0000                	.insn	2, 0x
  6e:	0f0a                	.insn	2, 0x0f0a
    addi    sp, sp, -FRAME_SIZE
  70:	0b00                	.insn	2, 0x0b00
  72:	0421                	.insn	2, 0x0421
    sw      x1,  OFF_X(1)(sp)
  74:	1349                	.insn	2, 0x1349
  76:	0000                	.insn	2, 0x
    sw      x2,  OFF_X(2)(sp)            /* original sp is sp+FRAME_SIZE */
  78:	0300050b          	.insn	4, 0x0300050b
    sw      x3,  OFF_X(3)(sp)
  7c:	3a0e                	.insn	2, 0x3a0e
  7e:	390b3b0b          	.insn	4, 0x390b3b0b
    sw      x4,  OFF_X(4)(sp)
  82:	0013490b          	.insn	4, 0x0013490b
    sw      x5,  OFF_X(5)(sp)
  86:	0c00                	.insn	2, 0x0c00
    sw      x6,  OFF_X(6)(sp)
  88:	0035                	.insn	2, 0x0035
  8a:	1349                	.insn	2, 0x1349
    sw      x7,  OFF_X(7)(sp)
  8c:	0000                	.insn	2, 0x
  8e:	2e0d                	.insn	2, 0x2e0d
    sw      x8,  OFF_X(8)(sp)
  90:	0301                	.insn	2, 0x0301
  92:	3a0e                	.insn	2, 0x3a0e
    sw      x9,  OFF_X(9)(sp)
  94:	0121                	.insn	2, 0x0121
  96:	21390b3b          	.insn	4, 0x21390b3b
    sw      x10, OFF_X(10)(sp)
  9a:	270d                	.insn	2, 0x270d
    sw      x11, OFF_X(11)(sp)
  9c:	1119                	.insn	2, 0x1119
  9e:	1201                	.insn	2, 0x1201
    sw      x12, OFF_X(12)(sp)
  a0:	4006                	.insn	2, 0x4006
  a2:	7a18                	.insn	2, 0x7a18
    sw      x13, OFF_X(13)(sp)
  a4:	0119                	.insn	2, 0x0119
  a6:	0e000013          	li	zero,224
    sw      x14, OFF_X(14)(sp)
  aa:	012e                	.insn	2, 0x012e
    sw      x15, OFF_X(15)(sp)
  ac:	0b3a0e03          	lb	t3,179(s4)
    sw      x16, OFF_X(16)(sp)
  b0:	21390b3b          	.insn	4, 0x21390b3b
    sw      x17, OFF_X(17)(sp)
  b4:	2718                	.insn	2, 0x2718
  b6:	4919                	.insn	2, 0x4919
    sw      x18, OFF_X(18)(sp)
  b8:	03212013          	slti	zero,sp,50
    sw      x19, OFF_X(19)(sp)
  bc:	1301                	.insn	2, 0x1301
  be:	0000                	.insn	2, 0x
    sw      x20, OFF_X(20)(sp)
  c0:	0300340f          	.insn	4, 0x0300340f
    sw      x21, OFF_X(21)(sp)
  c4:	3a08                	.insn	2, 0x3a08
  c6:	0221                	.insn	2, 0x0221
    sw      x22, OFF_X(22)(sp)
  c8:	3930213b          	.insn	4, 0x3930213b
    sw      x23, OFF_X(23)(sp)
  cc:	0013490b          	.insn	4, 0x0013490b
    sw      x24, OFF_X(24)(sp)
  d0:	1000                	.insn	2, 0x1000
  d2:	011d                	.insn	2, 0x011d
    sw      x25, OFF_X(25)(sp)
  d4:	1331                	.insn	2, 0x1331
  d6:	0111                	.insn	2, 0x0111
    sw      x26, OFF_X(26)(sp)
  d8:	0612                	.insn	2, 0x0612
  da:	2158                	.insn	2, 0x2158
    sw      x27, OFF_X(27)(sp)
  dc:	5902                	.insn	2, 0x5902
  de:	010b570b          	.insn	4, 0x010b570b
    sw      x28, OFF_X(28)(sp)
  e2:	11000013          	li	zero,272
    sw      x29, OFF_X(29)(sp)
  e6:	011d                	.insn	2, 0x011d
    sw      x30, OFF_X(30)(sp)
  e8:	1331                	.insn	2, 0x1331
  ea:	0111                	.insn	2, 0x0111
    sw      x31, OFF_X(31)(sp)
  ec:	0612                	.insn	2, 0x0612
  ee:	2158                	.insn	2, 0x2158
    addi    t0, sp, FRAME_SIZE
  f0:	5902                	.insn	2, 0x5902
  f2:	000b570b          	.insn	4, 0x000b570b
    sw      t0, OFF_X(2)(sp)
  f6:	1200                	.insn	2, 0x1200
    csrr    t0, mepc
  f8:	0026                	.insn	2, 0x0026
  fa:	1349                	.insn	2, 0x1349
    sw      t0, OFF_MEPC(sp)
  fc:	0000                	.insn	2, 0x
  fe:	49010113          	addi	sp,sp,1168 # 70490 <__stack_size+0x68490>
    csrr    t0, mcause
 102:	00130113          	addi	sp,t1,1 # 13a3 <_data_lma+0x837>
    sw      t0, OFF_MCAUSE(sp)
 106:	1400                	.insn	2, 0x1400
    csrr    t0, mtval
 108:	0021                	.insn	2, 0x0021
 10a:	1349                	.insn	2, 0x1349
    sw      t0, OFF_MTVAL(sp)
 10c:	00000b2f          	.insn	4, 0x0b2f
    csrr    t0, mstatus
 110:	3415                	.insn	2, 0x3415
 112:	0300                	.insn	2, 0x0300
    sw      t0, OFF_MSTATUS(sp)
 114:	3a0e                	.insn	2, 0x3a0e
 116:	0121                	.insn	2, 0x0121
    mv      a0, sp
 118:	21390b3b          	.insn	4, 0x21390b3b
    call    bsp_trap_dispatch
 11c:	491a                	.insn	2, 0x491a
 11e:	00180213          	addi	tp,a6,1
    lw      t0, OFF_MEPC(sp)
 122:	1600                	.insn	2, 0x1600
    csrw    mepc, t0
 124:	012e                	.insn	2, 0x012e
 126:	0e03193f 0b3b0b3a 	.insn	8, 0x0b3b0b3a0e03193f
    csrw    mstatus, t0
 12e:	2139                	.insn	2, 0x2139
    lw      x1,  OFF_X(1)(sp)
 130:	2706                	.insn	2, 0x2706
 132:	4919                	.insn	2, 0x4919
    lw      x3,  OFF_X(3)(sp)
 134:	01193c13          	sltiu	s8,s2,17
    lw      x4,  OFF_X(4)(sp)
 138:	17000013          	li	zero,368
    lw      x5,  OFF_X(5)(sp)
 13c:	012e                	.insn	2, 0x012e
 13e:	0e03193f 0b3b0b3a 	.insn	8, 0x0b3b0b3a0e03193f
    lw      x7,  OFF_X(7)(sp)
 146:	2139                	.insn	2, 0x2139
    lw      x8,  OFF_X(8)(sp)
 148:	2706                	.insn	2, 0x2706
 14a:	3c19                	.insn	2, 0x3c19
    lw      x9,  OFF_X(9)(sp)
 14c:	0119                	.insn	2, 0x0119
 14e:	18000013          	li	zero,384
    lw      x10, OFF_X(10)(sp)
 152:	0049                	.insn	2, 0x0049
    lw      x11, OFF_X(11)(sp)
 154:	0180                	.insn	2, 0x0180
 156:	00187e13          	andi	t3,a6,1
    lw      x12, OFF_X(12)(sp)
 15a:	1900                	.insn	2, 0x1900
    lw      x13, OFF_X(13)(sp)
 15c:	1755010b          	.insn	4, 0x1755010b
    lw      x14, OFF_X(14)(sp)
 160:	1301                	.insn	2, 0x1301
 162:	0000                	.insn	2, 0x
    lw      x15, OFF_X(15)(sp)
 164:	341a                	.insn	2, 0x341a
 166:	0300                	.insn	2, 0x0300
    lw      x16, OFF_X(16)(sp)
 168:	3a08                	.insn	2, 0x3a08
 16a:	0121                	.insn	2, 0x0121
    lw      x17, OFF_X(17)(sp)
 16c:	21390b3b          	.insn	4, 0x21390b3b
    lw      x18, OFF_X(18)(sp)
 170:	490e                	.insn	2, 0x490e
 172:	00170213          	addi	tp,a4,1
    lw      x19, OFF_X(19)(sp)
 176:	1b00                	.insn	2, 0x1b00
    lw      x20, OFF_X(20)(sp)
 178:	012e                	.insn	2, 0x012e
 17a:	0b3a0e03          	lb	t3,179(s4)
    lw      x21, OFF_X(21)(sp)
 17e:	0b390b3b          	.insn	4, 0x0b390b3b
    lw      x22, OFF_X(22)(sp)
 182:	21201927          	.insn	4, 0x21201927
    lw      x23, OFF_X(23)(sp)
 186:	00130103          	lb	sp,1(t1)
    lw      x24, OFF_X(24)(sp)
 18a:	1c00                	.insn	2, 0x1c00
    lw      x25, OFF_X(25)(sp)
 18c:	0034                	.insn	2, 0x0034
 18e:	1331                	.insn	2, 0x1331
    lw      x26, OFF_X(26)(sp)
 190:	1802                	.insn	2, 0x1802
 192:	0000                	.insn	2, 0x
    lw      x27, OFF_X(27)(sp)
 194:	341d                	.insn	2, 0x341d
 196:	3100                	.insn	2, 0x3100
    lw      x28, OFF_X(28)(sp)
 198:	00170213          	addi	tp,a4,1
    lw      x29, OFF_X(29)(sp)
 19c:	1e00                	.insn	2, 0x1e00
 19e:	011d                	.insn	2, 0x011d
    lw      x30, OFF_X(30)(sp)
 1a0:	1331                	.insn	2, 0x1331
 1a2:	0152                	.insn	2, 0x0152
    lw      x31, OFF_X(31)(sp)
 1a4:	1755                	.insn	2, 0x1755
 1a6:	2158                	.insn	2, 0x2158
    addi    sp, sp, FRAME_SIZE
 1a8:	5902                	.insn	2, 0x5902
 1aa:	0f21570b          	.insn	4, 0x0f21570b
    mret
 1ae:	1301                	.insn	2, 0x1301
{
 1b0:	0000                	.insn	2, 0x
 1b2:	111f 2501 130e      	.insn	6, 0x130e2501111f
 1b8:	1b1f030b          	.insn	4, 0x1b1f030b
 1bc:	551f 1117 1001      	.insn	6, 0x10011117551f
 1c2:	20000017          	auipc	zero,0x20000
 1c6:	0024                	.insn	2, 0x0024
    for (int i = 0; i < TASK_ITERS; i++) {
 1c8:	0b3e0b0b          	.insn	4, 0x0b3e0b0b
        uart_printf("[task1] iter=%d tick=%u\n", i, timer_count);
 1cc:	00000803          	lb	a6,0(zero) # 0 <_start>
 1d0:	1321                	.insn	2, 0x1321
 1d2:	0301                	.insn	2, 0x0301
    for (int i = 0; i < TASK_ITERS; i++) {
 1d4:	0b0e                	.insn	2, 0x0b0e
 1d6:	3b0b3a0b          	.insn	4, 0x3b0b3a0b
        uart_printf("[task1] iter=%d tick=%u\n", i, timer_count);
 1da:	010b390b          	.insn	4, 0x010b390b
 1de:	22000013          	li	zero,544
 1e2:	000d                	.insn	2, 0x000d
 1e4:	0b3a0803          	lb	a6,179(s4)
    for (int i = 0; i < TASK_ITERS; i++) {
 1e8:	0b390b3b          	.insn	4, 0x0b390b3b
        task_yield();
 1ec:	1349                	.insn	2, 0x1349
 1ee:	0b38                	.insn	2, 0x0b38
    for (int i = 0; i < TASK_ITERS; i++) {
 1f0:	0000                	.insn	2, 0x
 1f2:	27011523          	sh	a6,618(sp)
    task_done[1] = 1;
 1f6:	0119                	.insn	2, 0x0119
 1f8:	24000013          	li	zero,576
 1fc:	0018                	.insn	2, 0x0018
 1fe:	0000                	.insn	2, 0x
 200:	1525                	.insn	2, 0x1525
 202:	2700                	.insn	2, 0x2700
    for (;;) task_yield();
 204:	0019                	.insn	2, 0x0019
 206:	2600                	.insn	2, 0x2600
 208:	012e                	.insn	2, 0x012e
 20a:	0e03193f 0b3b0b3a 	.insn	8, 0x0b3b0b3a0e03193f
{
 212:	0b39                	.insn	2, 0x0b39
 214:	13491927          	.insn	4, 0x13491927
 218:	0111                	.insn	2, 0x0111
 21a:	0612                	.insn	2, 0x0612
 21c:	1840                	.insn	2, 0x1840
 21e:	197a                	.insn	2, 0x197a
 220:	1301                	.insn	2, 0x1301
 222:	0000                	.insn	2, 0x
    for (int i = 0; i < TASK_ITERS; i++) {
 224:	03000527          	.insn	4, 0x03000527
        uart_printf("[task0] iter=%d tick=%u\n", i, timer_count);
 228:	3a08                	.insn	2, 0x3a08
 22a:	390b3b0b          	.insn	4, 0x390b3b0b
 22e:	0213490b          	.insn	4, 0x0213490b
    for (int i = 0; i < TASK_ITERS; i++) {
 232:	28000017          	auipc	zero,0x28000
        uart_printf("[task0] iter=%d tick=%u\n", i, timer_count);
 236:	0148                	.insn	2, 0x0148
 238:	017d                	.insn	2, 0x017d
 23a:	0182                	.insn	2, 0x0182
 23c:	7f19                	.insn	2, 0x7f19
 23e:	29000013          	li	zero,656
 242:	0034                	.insn	2, 0x0034
    for (int i = 0; i < TASK_ITERS; i++) {
 244:	0b3a0e03          	lb	t3,179(s4)
        task_yield();
 248:	0b390b3b          	.insn	4, 0x0b390b3b
    for (int i = 0; i < TASK_ITERS; i++) {
 24c:	1349                	.insn	2, 0x1349
 24e:	0000                	.insn	2, 0x
    task_done[0] = 1;
 250:	052a                	.insn	2, 0x052a
 252:	0300                	.insn	2, 0x0300
 254:	3a08                	.insn	2, 0x3a08
 256:	390b3b0b          	.insn	4, 0x390b3b0b
 25a:	0013490b          	.insn	4, 0x0013490b
    for (;;) task_yield();
 25e:	2b00                	.insn	2, 0x2b00
 260:	012e                	.insn	2, 0x012e
 262:	1331                	.insn	2, 0x1331
    return *(volatile uint32_t *)addr;
 264:	0111                	.insn	2, 0x0111
 266:	0612                	.insn	2, 0x0612
 268:	1840                	.insn	2, 0x1840
 26a:	197a                	.insn	2, 0x197a
 26c:	0000                	.insn	2, 0x
 26e:	052c                	.insn	2, 0x052c
 270:	3100                	.insn	2, 0x3100
 272:	00051c13          	slli	s8,a0,0x0
 276:	0000                	.insn	2, 0x
 278:	0d01                	.insn	2, 0x0d01
 27a:	0300                	.insn	2, 0x0300
 27c:	3a08                	.insn	2, 0x3a08
 27e:	0321                	.insn	2, 0x0321
    } while (hi0 != hi1);
 280:	21390b3b          	.insn	4, 0x21390b3b
    uint64_t deadline = clint_mtime() + delta_ticks;
 284:	490e                	.insn	2, 0x490e
 286:	000b3813          	sltiu	a6,s6,0
 28a:	0200                	.insn	2, 0x0200
 28c:	0024                	.insn	2, 0x0024
 28e:	0b3e0b0b          	.insn	4, 0x0b3e0b0b
 292:	00000e03          	lb	t3,0(zero) # 0 <_start>
 296:	03003403          	.insn	4, 0x03003403
    *(volatile uint32_t *)addr = v;
 29a:	3a08                	.insn	2, 0x3a08
 29c:	0121                	.insn	2, 0x0121
 29e:	0b390b3b          	.insn	4, 0x0b390b3b
 2a2:	1349                	.insn	2, 0x1349
 2a4:	1702                	.insn	2, 0x1702
 2a6:	0000                	.insn	2, 0x
 2a8:	1604                	.insn	2, 0x1604
 2aa:	0300                	.insn	2, 0x0300
 2ac:	3a0e                	.insn	2, 0x3a0e
 2ae:	0221                	.insn	2, 0x0221
}
 2b0:	0b390b3b          	.insn	4, 0x0b390b3b
    timer_count++;
 2b4:	1349                	.insn	2, 0x1349
 2b6:	0000                	.insn	2, 0x
 2b8:	3405                	.insn	2, 0x3405
 2ba:	0300                	.insn	2, 0x0300
 2bc:	3a0e                	.insn	2, 0x3a0e
 2be:	0121                	.insn	2, 0x0121
 2c0:	21390b3b          	.insn	4, 0x21390b3b
    clint_schedule_relative(TICK_INTERVAL_TICKS);
 2c4:	491c                	.insn	2, 0x491c
 2c6:	00180213          	addi	tp,a6,1
{
 2ca:	0600                	.insn	2, 0x0600
 2cc:	210b000f          	.insn	4, 0x210b000f
 2d0:	4904                	.insn	2, 0x4904
 2d2:	07000013          	li	zero,112
 2d6:	0101                	.insn	2, 0x0101
    bsp_init();
 2d8:	1349                	.insn	2, 0x1349
 2da:	1301                	.insn	2, 0x1301
    uart_puts("os_demo boot\n");
 2dc:	0000                	.insn	2, 0x
 2de:	2108                	.insn	2, 0x2108
 2e0:	4900                	.insn	2, 0x4900
 2e2:	03212f13          	slti	t5,sp,50
 2e6:	0000                	.insn	2, 0x
    bsp_set_timer_handler(timer_tick);
 2e8:	0509                	.insn	2, 0x0509
 2ea:	4900                	.insn	2, 0x4900
 2ec:	0a000013          	li	zero,160
    clint_schedule_relative(TICK_INTERVAL_TICKS);
 2f0:	0034                	.insn	2, 0x0034
 2f2:	213a0e03          	lb	t3,531(s4)
    bsp_enable_timer_interrupt();
 2f6:	3b01                	.insn	2, 0x3b01
    bsp_irq_enable();
 2f8:	0921390b          	.insn	4, 0x0921390b
    sched_init();
 2fc:	1349                	.insn	2, 0x1349
 2fe:	1702                	.insn	2, 0x1702
    if (task_create(task0) < 0 || task_create(task1) < 0) {
 300:	0000                	.insn	2, 0x
 302:	2501110b          	.insn	4, 0x2501110b
 306:	130e                	.insn	2, 0x130e
 308:	1b1f030b          	.insn	4, 0x1b1f030b
 30c:	551f 1117 1001      	.insn	6, 0x10011117551f
 312:	0c000017          	auipc	zero,0xc000
 316:	0024                	.insn	2, 0x0024
    while (!(task_done[0] && task_done[1])) {
 318:	0b3e0b0b          	.insn	4, 0x0b3e0b0b
 31c:	00000803          	lb	a6,0(zero) # 0 <_start>
 320:	130d                	.insn	2, 0x130d
 322:	0301                	.insn	2, 0x0301
 324:	0b0e                	.insn	2, 0x0b0e
 326:	3b0b3a0b          	.insn	4, 0x3b0b3a0b
 32a:	010b390b          	.insn	4, 0x010b390b
 32e:	0e000013          	li	zero,224
    bsp_irq_disable();
 332:	0021                	.insn	2, 0x0021
    uart_printf("os_demo: all tasks finished (ticks=%u)\n", timer_count);
 334:	1349                	.insn	2, 0x1349
 336:	0000052f          	.insn	4, 0x052f
 33a:	0300340f          	.insn	4, 0x0300340f
 33e:	3a0e                	.insn	2, 0x3a0e
 340:	390b3b0b          	.insn	4, 0x390b3b0b
 344:	8813490b          	.insn	4, 0x8813490b
    uart_puts("OS_DEMO_PASS\n");
 348:	0b01                	.insn	2, 0x0b01
 34a:	1802                	.insn	2, 0x1802
 34c:	0000                	.insn	2, 0x
 34e:	2e10                	.insn	2, 0x2e10
 350:	3f01                	.insn	2, 0x3f01
 352:	0319                	.insn	2, 0x0319
        __asm__ volatile("wfi");
 354:	3a0e                	.insn	2, 0x3a0e
 356:	390b3b0b          	.insn	4, 0x390b3b0b
    for (;;) {
 35a:	3c19270b          	.insn	4, 0x3c19270b
        uart_puts("os_demo: task_create failed\n");
 35e:	0119                	.insn	2, 0x0119
 360:	11000013          	li	zero,272
 364:	012e                	.insn	2, 0x012e
 366:	0e03193f 0b3b0b3a 	.insn	8, 0x0b3b0b3a0e03193f
        task_yield();
 36e:	0b39                	.insn	2, 0x0b39
 370:	01111927          	.insn	4, 0x01111927
    ntasks   = 1;
 374:	0612                	.insn	2, 0x0612
 376:	1840                	.insn	2, 0x1840
 378:	197a                	.insn	2, 0x197a
 37a:	1301                	.insn	2, 0x1301
    cur_task = 0;
 37c:	0000                	.insn	2, 0x
 37e:	4812                	.insn	2, 0x4812
 380:	7d00                	.insn	2, 0x7d00
 382:	8201                	.insn	2, 0x8201
}
 384:	1901                	.insn	2, 0x1901
 386:	0000137f 3f012e13 	.insn	12, 0x3a0e03193f012e130000137f
 38e:	3a0e0319 
    if (ntasks >= SCHED_MAX_TASKS) {
 392:	390b3b0b          	.insn	4, 0x390b3b0b
 396:	4919270b          	.insn	4, 0x4919270b
    int id = ntasks++;
 39a:	12011113          	.insn	4, 0x12011113
 39e:	4006                	.insn	2, 0x4006
    struct sched_ctx *c = &tasks[id];
 3a0:	7a18                	.insn	2, 0x7a18
 3a2:	0119                	.insn	2, 0x0119
 3a4:	14000013          	li	zero,320
 3a8:	0005                	.insn	2, 0x0005
 3aa:	0b3a0e03          	lb	t3,179(s4)
 3ae:	0b390b3b          	.insn	4, 0x0b390b3b
 3b2:	1349                	.insn	2, 0x1349
 3b4:	1702                	.insn	2, 0x1702
 3b6:	0000                	.insn	2, 0x
 3b8:	0b15                	.insn	2, 0x0b15
 3ba:	5501                	.insn	2, 0x5501
        p[i] = 0;
 3bc:	16000017          	auipc	zero,0x16000
    for (unsigned i = 0; i < sizeof(*c) / sizeof(uint32_t); i++) {
 3c0:	0015                	.insn	2, 0x0015
 3c2:	00001927          	.insn	4, 0x1927
 3c6:	3f002e17          	auipc	t3,0x3f002
    c->ra = (uint32_t)(uintptr_t)entry;
 3ca:	0319                	.insn	2, 0x0319
 3cc:	3a0e                	.insn	2, 0x3a0e
 3ce:	390b3b0b          	.insn	4, 0x390b3b0b
    c->sp = (uint32_t)(uintptr_t)&stacks[id][SCHED_STACK_SIZE];
 3d2:	1119270b          	.insn	4, 0x1119270b
    c->ra = (uint32_t)(uintptr_t)entry;
 3d6:	1201                	.insn	2, 0x1201
    c->sp = (uint32_t)(uintptr_t)&stacks[id][SCHED_STACK_SIZE];
 3d8:	4006                	.insn	2, 0x4006
 3da:	7a18                	.insn	2, 0x7a18
 3dc:	0019                	.insn	2, 0x0019
 3de:	0000                	.insn	2, 0x
 3e0:	1101                	.insn	2, 0x1101
 3e2:	1001                	.insn	2, 0x1001
    c->ra = (uint32_t)(uintptr_t)entry;
 3e4:	12011117          	auipc	sp,0x12011
    c->sp = (uint32_t)(uintptr_t)&stacks[id][SCHED_STACK_SIZE];
 3e8:	1b0e030f          	.insn	4, 0x1b0e030f
    return id;
 3ec:	250e                	.insn	2, 0x250e
 3ee:	130e                	.insn	2, 0x130e
        return -1;
 3f0:	0005                	.insn	2, 0x0005
 3f2:	0200                	.insn	2, 0x0200
}
 3f4:	002e                	.insn	2, 0x002e
 3f6:	193f0e03          	lb	t3,403(t5)
    if (ntasks <= 1) return;
 3fa:	1549                	.insn	2, 0x1549
 3fc:	0111                	.insn	2, 0x0111
 3fe:	0f12                	.insn	2, 0x0f12
 400:	0000                	.insn	2, 0x
 402:	00003b03          	.insn	4, 0x3b03
    int prev = cur_task;
 406:	0000                	.insn	2, 0x
 408:	0501                	.insn	2, 0x0501
 40a:	3100                	.insn	2, 0x3100
    sched_switch(&tasks[prev], &tasks[next]);
 40c:	00170213          	addi	tp,a4,1
 410:	0200                	.insn	2, 0x0200
 412:	0049                	.insn	2, 0x0049
    int next = (cur_task + 1) % ntasks;
 414:	1802                	.insn	2, 0x1802
 416:	187e                	.insn	2, 0x187e
 418:	0000                	.insn	2, 0x
 41a:	0b002403          	lw	s0,176(zero) # b0 <bsp_trap_entry+0x40>
    cur_task = next;
 41e:	030b3e0b          	.insn	4, 0x030b3e0b
    sched_switch(&tasks[prev], &tasks[next]);
 422:	000e                	.insn	2, 0x000e
 424:	0400                	.insn	2, 0x0400
 426:	012e                	.insn	2, 0x012e
 428:	0e03193f 3b01213a 	.insn	8, 0x3b01213a0e03193f
 430:	0621390b          	.insn	4, 0x0621390b
 434:	01111927          	.insn	4, 0x01111927
}
 438:	0612                	.insn	2, 0x0612
 43a:	1840                	.insn	2, 0x1840
    sw   ra,  0(a0)
 43c:	197a                	.insn	2, 0x197a
 43e:	1301                	.insn	2, 0x1301
    sw   sp,  4(a0)
 440:	0000                	.insn	2, 0x
 442:	1d05                	.insn	2, 0x1d05
    sw   s0,  8(a0)
 444:	3101                	.insn	2, 0x3101
 446:	12011113          	.insn	4, 0x12011113
    sw   s1, 12(a0)
 44a:	5806                	.insn	2, 0x5806
    sw   s2, 16(a0)
 44c:	0121                	.insn	2, 0x0121
 44e:	0b59                	.insn	2, 0x0b59
    sw   s3, 20(a0)
 450:	13010b57          	.insn	4, 0x13010b57
    sw   s4, 24(a0)
 454:	0000                	.insn	2, 0x
 456:	0506                	.insn	2, 0x0506
    sw   s5, 28(a0)
 458:	0300                	.insn	2, 0x0300
 45a:	3a08                	.insn	2, 0x3a08
    sw   s6, 32(a0)
 45c:	0121                	.insn	2, 0x0121
 45e:	0b390b3b          	.insn	4, 0x0b390b3b
    sw   s7, 36(a0)
 462:	1349                	.insn	2, 0x1349
    sw   s8, 40(a0)
 464:	1702                	.insn	2, 0x1702
 466:	0000                	.insn	2, 0x
    sw   s9, 44(a0)
 468:	03003407          	.insn	4, 0x03003407
    sw   s10,48(a0)
 46c:	3a08                	.insn	2, 0x3a08
 46e:	0121                	.insn	2, 0x0121
    sw   s11,52(a0)
 470:	0b390b3b          	.insn	4, 0x0b390b3b
    lw   ra,  0(a1)
 474:	1349                	.insn	2, 0x1349
 476:	0000                	.insn	2, 0x
    lw   sp,  4(a1)
 478:	1d08                	.insn	2, 0x1d08
 47a:	3101                	.insn	2, 0x3101
    lw   s0,  8(a1)
 47c:	12011113          	.insn	4, 0x12011113
    lw   s1, 12(a1)
 480:	5806                	.insn	2, 0x5806
 482:	570b590b          	.insn	4, 0x570b590b
    lw   s2, 16(a1)
 486:	0900000b          	.insn	4, 0x0900000b
    lw   s3, 20(a1)
 48a:	0148                	.insn	2, 0x0148
    lw   s4, 24(a1)
 48c:	017d                	.insn	2, 0x017d
 48e:	0000137f 0b000f0a 	.insn	12, 0x134904210b000f0a0000137f
 496:	13490421 
    lw   s7, 36(a1)
 49a:	0000                	.insn	2, 0x
    lw   s8, 40(a1)
 49c:	0300340b          	.insn	4, 0x0300340b
    lw   s9, 44(a1)
 4a0:	3a08                	.insn	2, 0x3a08
 4a2:	0121                	.insn	2, 0x0121
    lw   s10,48(a1)
 4a4:	0b390b3b          	.insn	4, 0x0b390b3b
    lw   s11,52(a1)
 4a8:	1349                	.insn	2, 0x1349
 4aa:	0b1c                	.insn	2, 0x0b1c
    ret
 4ac:	0000                	.insn	2, 0x
 4ae:	0b0c                	.insn	2, 0x0b0c
{
 4b0:	1101                	.insn	2, 0x1101
 4b2:	1201                	.insn	2, 0x1201
 4b4:	0006                	.insn	2, 0x0006
 4b6:	0d00                	.insn	2, 0x0d00
 4b8:	0016                	.insn	2, 0x0016
 4ba:	0b3a0e03          	lb	t3,179(s4)
    uart_puts("\n[bsp] UNHANDLED TRAP: ");
 4be:	0b390b3b          	.insn	4, 0x0b390b3b
 4c2:	1349                	.insn	2, 0x1349
{
 4c4:	0000                	.insn	2, 0x
 4c6:	0d0e                	.insn	2, 0x0d0e
 4c8:	0300                	.insn	2, 0x0300
 4ca:	3a0e                	.insn	2, 0x3a0e
 4cc:	0621                	.insn	2, 0x0621
 4ce:	21390b3b          	.insn	4, 0x21390b3b
    uart_puts("\n[bsp] UNHANDLED TRAP: ");
 4d2:	490e                	.insn	2, 0x490e
    uart_puts(tag);
 4d4:	000b3813          	sltiu	a6,s6,0
 4d8:	0f00                	.insn	2, 0x0f00
 4da:	0005                	.insn	2, 0x0005
    uart_printf("  mcause=0x%08x  mepc=0x%08x  mtval=0x%08x  mstatus=0x%08x\n",
 4dc:	1349                	.insn	2, 0x1349
 4de:	0000                	.insn	2, 0x
 4e0:	3410                	.insn	2, 0x3410
 4e2:	0300                	.insn	2, 0x0300
 4e4:	3a0e                	.insn	2, 0x3a0e
 4e6:	0121                	.insn	2, 0x0121
 4e8:	21390b3b          	.insn	4, 0x21390b3b
 4ec:	0213491b          	.insn	4, 0x0213491b
 4f0:	0018                	.insn	2, 0x0018
 4f2:	1100                	.insn	2, 0x1100
 4f4:	0005                	.insn	2, 0x0005
 4f6:	213a0803          	lb	a6,531(s4)
    for (;;) {
 4fa:	3b01                	.insn	2, 0x3b01
    default_banner(f, "exception");
 4fc:	490b390b          	.insn	4, 0x490b390b
{
 500:	00180213          	addi	tp,a6,1
    default_banner(f, "exception");
 504:	1200                	.insn	2, 0x1200
 506:	012e                	.insn	2, 0x012e
{
 508:	213a0e03          	lb	t3,531(s4)
    default_banner(f, "exception");
 50c:	3b01                	.insn	2, 0x3b01
 50e:	0d21390b          	.insn	4, 0x0d21390b
{
 512:	01111927          	.insn	4, 0x01111927
 516:	0612                	.insn	2, 0x0612
 518:	1840                	.insn	2, 0x1840
 51a:	197a                	.insn	2, 0x197a
    default_banner(f, "unhandled msi");
 51c:	1301                	.insn	2, 0x1301
 51e:	0000                	.insn	2, 0x
 520:	49010113          	addi	sp,sp,1168 # 12011874 <__stack_size+0x12009874>
 524:	00130113          	addi	sp,t1,1
 528:	1400                	.insn	2, 0x1400
 52a:	0021                	.insn	2, 0x0021
{
 52c:	1349                	.insn	2, 0x1349
 52e:	00000b2f          	.insn	4, 0x0b2f
 532:	3415                	.insn	2, 0x3415
 534:	0300                	.insn	2, 0x0300
 536:	3a08                	.insn	2, 0x3a08
 538:	0121                	.insn	2, 0x0121
 53a:	0b390b3b          	.insn	4, 0x0b390b3b
 53e:	1349                	.insn	2, 0x1349
    default_banner(f, "unhandled mti");
 540:	1702                	.insn	2, 0x1702
 542:	0000                	.insn	2, 0x
 544:	0b16                	.insn	2, 0x0b16
 546:	1101                	.insn	2, 0x1101
 548:	1201                	.insn	2, 0x1201
 54a:	0106                	.insn	2, 0x0106
 54c:	17000013          	li	zero,368
 550:	0034                	.insn	2, 0x0034
 552:	213a0e03          	lb	t3,531(s4)
void bsp_set_timer_handler(bsp_trap_handler_t h) { timer_handler = h; }
 556:	3b01                	.insn	2, 0x3b01
 558:	490b390b          	.insn	4, 0x490b390b
void bsp_irq_enable(void)  { csr_set(mstatus, MSTATUS_MIE); }
 55c:	00170213          	addi	tp,a4,1
 560:	1800                	.insn	2, 0x1800
 562:	0005                	.insn	2, 0x0005
 564:	0b3a0803          	lb	a6,179(s4)
void bsp_irq_disable(void) { csr_clear(mstatus, MSTATUS_MIE); }
 568:	0b390b3b          	.insn	4, 0x0b390b3b
 56c:	1349                	.insn	2, 0x1349
 56e:	0000                	.insn	2, 0x
 570:	1d19                	.insn	2, 0x1d19
 572:	3101                	.insn	2, 0x3101
void bsp_enable_timer_interrupt(void)    { csr_set(mie, MIE_MTIE); }
 574:	55015213          	.insn	4, 0x55015213
 578:	01215817          	auipc	a6,0x1215
 57c:	0b59                	.insn	2, 0x0b59
 57e:	01052157          	.insn	4, 0x01052157
    uint32_t mcause = f->mcause;
 582:	1a000013          	li	zero,416
{
 586:	0026                	.insn	2, 0x0026
    if (mcause & MCAUSE_INTERRUPT_BIT) {
 588:	1349                	.insn	2, 0x1349
 58a:	0000                	.insn	2, 0x
        uint32_t code = mcause & MCAUSE_CODE_MASK;
 58c:	2701151b          	.insn	4, 0x2701151b
 590:	0119                	.insn	2, 0x0119
 592:	1c000013          	li	zero,448
        switch (code) {
 596:	0034                	.insn	2, 0x0034
 598:	213a0803          	lb	a6,531(s4)
{
 59c:	3b01                	.insn	2, 0x3b01
 59e:	490b390b          	.insn	4, 0x490b390b
 5a2:	00051c13          	slli	s8,a0,0x0
 5a6:	1d00                	.insn	2, 0x1d00
        switch (code) {
 5a8:	1755010b          	.insn	4, 0x1755010b
 5ac:	1301                	.insn	2, 0x1301
 5ae:	0000                	.insn	2, 0x
 5b0:	2e1e                	.insn	2, 0x2e1e
 5b2:	0301                	.insn	2, 0x0301
 5b4:	3a0e                	.insn	2, 0x3a0e
 5b6:	390b3b0b          	.insn	4, 0x390b3b0b
            default_banner(f, "unknown interrupt cause");
 5ba:	2019270b          	.insn	4, 0x2019270b
 5be:	0013010b          	.insn	4, 0x0013010b
 5c2:	1f00                	.insn	2, 0x1f00
            (timer_handler ? timer_handler : default_timer)(f);
 5c4:	0148                	.insn	2, 0x0148
 5c6:	017d                	.insn	2, 0x017d
 5c8:	1301137f 05200000 	.insn	12, 0x3a0e0300052000001301137f
 5d0:	3a0e0300 
        (h ? h : default_exception)(f);
 5d4:	0321                	.insn	2, 0x0321
 5d6:	0b390b3b          	.insn	4, 0x0b390b3b
            (soft_handler ? soft_handler : default_soft)(f);
 5da:	1349                	.insn	2, 0x1349
 5dc:	0000                	.insn	2, 0x
 5de:	1121                	.insn	2, 0x1121
 5e0:	2501                	.insn	2, 0x2501
 5e2:	130e                	.insn	2, 0x130e
}
 5e4:	1b1f030b          	.insn	4, 0x1b1f030b
 5e8:	551f 1117 1001      	.insn	6, 0x10011117551f
            (soft_handler ? soft_handler : default_soft)(f);
 5ee:	22000017          	auipc	zero,0x22000
}
 5f2:	0024                	.insn	2, 0x0024
        (h ? h : default_exception)(f);
 5f4:	0b3e0b0b          	.insn	4, 0x0b3e0b0b
    return *(volatile uint32_t *)addr;
 5f8:	00000803          	lb	a6,0(zero) # 0 <_start>
 5fc:	03011323          	sh	a6,38(sp)
 600:	0b0e                	.insn	2, 0x0b0e
 602:	3b0b3a0b          	.insn	4, 0x3b0b3a0b
            if (irq) {
 606:	010b390b          	.insn	4, 0x010b390b
                if (irq < IRQ_HANDLER_SLOTS && irq_handlers[irq])
 60a:	24000013          	li	zero,576
 60e:	000d                	.insn	2, 0x000d
 610:	0b3a0803          	lb	a6,179(s4)
 614:	0b390b3b          	.insn	4, 0x0b390b3b
 618:	1349                	.insn	2, 0x1349
 61a:	0b38                	.insn	2, 0x0b38
 61c:	0000                	.insn	2, 0x
 61e:	2e25                	.insn	2, 0x2e25
 620:	3f00                	.insn	2, 0x3f00
 622:	0319                	.insn	2, 0x0319
                    irq_handlers[irq](irq);
 624:	3a0e                	.insn	2, 0x3a0e
 626:	390b3b0b          	.insn	4, 0x390b3b0b
 62a:	3c19270b          	.insn	4, 0x3c19270b
 62e:	0019                	.insn	2, 0x0019
    *(volatile uint32_t *)addr = v;
 630:	2600                	.insn	2, 0x2600
 632:	012e                	.insn	2, 0x012e
 634:	0e03193f 0b3b0b3a 	.insn	8, 0x0b3b0b3a0e03193f
}
 63c:	0b39                	.insn	2, 0x0b39
 63e:	193c1927          	.insn	4, 0x193c1927
 642:	1301                	.insn	2, 0x1301
 644:	0000                	.insn	2, 0x
 646:	3f012e27          	.insn	4, 0x3f012e27
    uart_printf("\n[bsp] UNHANDLED PLIC IRQ %u\n", irq);
 64a:	0319                	.insn	2, 0x0319
 64c:	3a0e                	.insn	2, 0x3a0e
 64e:	390b3b0b          	.insn	4, 0x390b3b0b
 652:	4919270b          	.insn	4, 0x4919270b
    for (;;) {}
 656:	01193c13          	sltiu	s8,s2,17
            (code < EXC_HANDLER_SLOTS) ? exc_handlers[code] : NULL;
 65a:	28000013          	li	zero,640
 65e:	0018                	.insn	2, 0x0018
 660:	0000                	.insn	2, 0x
 662:	2e29                	.insn	2, 0x2e29
 664:	3f01                	.insn	2, 0x3f01
 666:	0319                	.insn	2, 0x0319
 668:	3a0e                	.insn	2, 0x3a0e
 66a:	390b3b0b          	.insn	4, 0x390b3b0b
 66e:	1119270b          	.insn	4, 0x1119270b
 672:	1201                	.insn	2, 0x1201
        (h ? h : default_exception)(f);
 674:	4006                	.insn	2, 0x4006
 676:	0118                	.insn	2, 0x0118
 678:	2a000013          	li	zero,672
 67c:	0148                	.insn	2, 0x0148
 67e:	017d                	.insn	2, 0x017d
    csr_write(mtvec, (uint32_t)(uintptr_t)bsp_trap_entry);
 680:	0000                	.insn	2, 0x
 682:	55010b2b          	.insn	4, 0x55010b2b
 686:	2c000017          	auipc	zero,0x2c000
    csr_write(mstatus, MSTATUS_MPP);
 68a:	0005                	.insn	2, 0x0005
 68c:	0b3a0e03          	lb	t3,179(s4)
 690:	0b390b3b          	.insn	4, 0x0b390b3b
    csr_write(mie, 0);
 694:	1349                	.insn	2, 0x1349
 696:	1702                	.insn	2, 0x1702
 698:	0000                	.insn	2, 0x
 69a:	1d2d                	.insn	2, 0x1d2d
    return *(volatile uint32_t *)addr;
 69c:	3101                	.insn	2, 0x3101
 69e:	55015213          	.insn	4, 0x55015213
 6a2:	590b5817          	auipc	a6,0x590b5
 6a6:	000b570b          	.insn	4, 0x000b570b
    if (irq) plic_complete(irq);
 6aa:	2e00                	.insn	2, 0x2e00
    *(volatile uint32_t *)addr = v;
 6ac:	002e                	.insn	2, 0x002e
 6ae:	0b3a0e03          	lb	t3,179(s4)
 6b2:	0b390b3b          	.insn	4, 0x0b390b3b
 6b6:	13491927          	.insn	4, 0x13491927
 6ba:	0b20                	.insn	2, 0x0b20
 6bc:	0000                	.insn	2, 0x
 6be:	03002e2f          	.insn	4, 0x03002e2f
 6c2:	3a0e                	.insn	2, 0x3a0e
 6c4:	390b3b0b          	.insn	4, 0x390b3b0b
 6c8:	2019270b          	.insn	4, 0x2019270b
}
 6cc:	3000000b          	.insn	4, 0x3000000b
{
 6d0:	012e                	.insn	2, 0x012e
 6d2:	0b3a0e03          	lb	t3,179(s4)
    const char *digits = upper_case ? digits_upper : digits_lower;
 6d6:	0b390b3b          	.insn	4, 0x0b390b3b
 6da:	13491927          	.insn	4, 0x13491927
 6de:	0b20                	.insn	2, 0x0b20
    if (val == 0) {
 6e0:	1301                	.insn	2, 0x1301
 6e2:	0000                	.insn	2, 0x
        buf[i++] = '0';
 6e4:	2e31                	.insn	2, 0x2e31
 6e6:	0301                	.insn	2, 0x0301
 6e8:	3a0e                	.insn	2, 0x3a0e
 6ea:	390b3b0b          	.insn	4, 0x390b3b0b
 6ee:	2019270b          	.insn	4, 0x2019270b
    int i = 0;
 6f2:	0000000b          	.insn	4, 0x000b
    for (; i < pad_width; i++) {
 6f6:	0501                	.insn	2, 0x0501
 6f8:	3100                	.insn	2, 0x3100
 6fa:	00170213          	addi	tp,a4,1
 6fe:	0200                	.insn	2, 0x0200
 700:	0024                	.insn	2, 0x0024
 702:	0b3e0b0b          	.insn	4, 0x0b3e0b0b
 706:	00000e03          	lb	t3,0(zero) # 0 <_start>
 70a:	31011d03          	lh	s10,784(sp)
    while (i-- > 0) {
 70e:	12011113          	.insn	4, 0x12011113
 712:	5806                	.insn	2, 0x5806
 714:	0121                	.insn	2, 0x0121
 716:	0b59                	.insn	2, 0x0b59
}
 718:	00000b57          	.insn	4, 0x0b57
 71c:	1604                	.insn	2, 0x1604
 71e:	0300                	.insn	2, 0x0300
    const char *digits = upper_case ? digits_upper : digits_lower;
 720:	3a0e                	.insn	2, 0x3a0e
 722:	390b3b0b          	.insn	4, 0x390b3b0b
 726:	0013490b          	.insn	4, 0x0013490b
 72a:	0500                	.insn	2, 0x0500
 72c:	0005                	.insn	2, 0x0005
 72e:	0b3a0e03          	lb	t3,179(s4)
    int i = 0;
 732:	0b390b3b          	.insn	4, 0x0b390b3b
        while (val != 0 && i < 32) {
 736:	1349                	.insn	2, 0x1349
            buf[i++] = digits[val % base];
 738:	0000                	.insn	2, 0x
 73a:	0506                	.insn	2, 0x0506
 73c:	0300                	.insn	2, 0x0300
 73e:	3a0e                	.insn	2, 0x3a0e
 740:	0121                	.insn	2, 0x0121
 742:	392b213b          	.insn	4, 0x392b213b
 746:	0213490b          	.insn	4, 0x0213490b
 74a:	07000017          	auipc	zero,0x7000
            val /= base;
 74e:	011d                	.insn	2, 0x011d
 750:	1331                	.insn	2, 0x1331
 752:	0152                	.insn	2, 0x0152
        while (val != 0 && i < 32) {
 754:	1755                	.insn	2, 0x1755
 756:	2158                	.insn	2, 0x2158
 758:	5901                	.insn	2, 0x5901
 75a:	000b570b          	.insn	4, 0x000b570b
 75e:	0800                	.insn	2, 0x0800
 760:	0005                	.insn	2, 0x0005
 762:	213a0803          	lb	a6,531(s4)
        buf[i] = pad_char;
 766:	3b01                	.insn	2, 0x3b01
 768:	490b390b          	.insn	4, 0x490b390b
 76c:	00170213          	addi	tp,a4,1
    for (; i < pad_width; i++) {
 770:	0900                	.insn	2, 0x0900
 772:	0034                	.insn	2, 0x0034
 774:	213a0803          	lb	a6,531(s4)
        uart_putc(buf[i]);
 778:	3b01                	.insn	2, 0x3b01
 77a:	490b390b          	.insn	4, 0x490b390b
 77e:	00180213          	addi	tp,a6,1 # 590b56a3 <__stack_top+0x390756a3>
    mmio_write32(UART_DATA_REG, (uint8_t)c);
 782:	0a00                	.insn	2, 0x0a00
 784:	0034                	.insn	2, 0x0034
 786:	213a0e03          	lb	t3,531(s4)
}
 78a:	3b01                	.insn	2, 0x3b01
 78c:	490b390b          	.insn	4, 0x490b390b
    while (*s) {
 790:	00170213          	addi	tp,a4,1
 794:	0b00                	.insn	2, 0x0b00
 796:	0034                	.insn	2, 0x0034
}
 798:	213a0803          	lb	a6,531(s4)
        uart_putc(*s++);
 79c:	3b01                	.insn	2, 0x3b01
 79e:	490b390b          	.insn	4, 0x490b390b
 7a2:	00170213          	addi	tp,a4,1
}
 7a6:	0c00                	.insn	2, 0x0c00
{
 7a8:	011d                	.insn	2, 0x011d
 7aa:	1331                	.insn	2, 0x1331
 7ac:	0111                	.insn	2, 0x0111
 7ae:	0612                	.insn	2, 0x0612
    va_start(ap, fmt);
 7b0:	2158                	.insn	2, 0x2158
 7b2:	5901                	.insn	2, 0x5901
{
 7b4:	0d21570b          	.insn	4, 0x0d21570b
 7b8:	1301                	.insn	2, 0x1301
 7ba:	0000                	.insn	2, 0x
 7bc:	050d                	.insn	2, 0x050d
 7be:	0300                	.insn	2, 0x0300
 7c0:	3a08                	.insn	2, 0x3a08
 7c2:	390b3b0b          	.insn	4, 0x390b3b0b
 7c6:	0013490b          	.insn	4, 0x0013490b
 7ca:	0e00                	.insn	2, 0x0e00
 7cc:	012e                	.insn	2, 0x012e
 7ce:	0e03193f 3b01213a 	.insn	8, 0x3b01213a0e03193f
 7d6:	0521390b          	.insn	4, 0x0521390b
 7da:	13491927          	.insn	4, 0x13491927
 7de:	0111                	.insn	2, 0x0111
 7e0:	0612                	.insn	2, 0x0612
 7e2:	1840                	.insn	2, 0x1840
 7e4:	197a                	.insn	2, 0x197a
 7e6:	1301                	.insn	2, 0x1301
 7e8:	0000                	.insn	2, 0x
 7ea:	7d00480f          	.insn	4, 0x7d00480f
 7ee:	7f01                	.insn	2, 0x7f01
    va_start(ap, fmt);
 7f0:	10000013          	li	zero,256
        if (*p != '%') {
 7f4:	011d                	.insn	2, 0x011d
 7f6:	1331                	.insn	2, 0x1331
        if (*p == '0') {
 7f8:	0152                	.insn	2, 0x0152
 7fa:	1755                	.insn	2, 0x1755
        while (*p >= '0' && *p <= '9') {
 7fc:	2158                	.insn	2, 0x2158
 7fe:	5901                	.insn	2, 0x5901
            pad_width = pad_width * 10 + (*p - '0');
 800:	0d21570b          	.insn	4, 0x0d21570b
        switch (*p) {
 804:	1301                	.insn	2, 0x1301
 806:	0000                	.insn	2, 0x
 808:	0511                	.insn	2, 0x0511
 80a:	3100                	.insn	2, 0x3100
    for (const char *p = fmt; *p; p++) {
 80c:	12000013          	li	zero,288
 810:	0026                	.insn	2, 0x0026
 812:	1349                	.insn	2, 0x1349
}
 814:	0000                	.insn	2, 0x
 816:	03012e13          	slti	t3,sp,48
 81a:	3a0e                	.insn	2, 0x3a0e
 81c:	390b3b0b          	.insn	4, 0x390b3b0b
 820:	2019270b          	.insn	4, 0x2019270b
 824:	0013010b          	.insn	4, 0x0013010b
 828:	1400                	.insn	2, 0x1400
 82a:	0034                	.insn	2, 0x0034
 82c:	213a0e03          	lb	t3,531(s4)
 830:	3b01                	.insn	2, 0x3b01
 832:	1721390b          	.insn	4, 0x1721390b
 836:	1349                	.insn	2, 0x1349
 838:	1802                	.insn	2, 0x1802
 83a:	0000                	.insn	2, 0x
 83c:	0115                	.insn	2, 0x0115
 83e:	4901                	.insn	2, 0x4901
        if (*p != '%') {
 840:	00130113          	addi	sp,t1,1
 844:	1600                	.insn	2, 0x1600
 846:	0021                	.insn	2, 0x0021
 848:	1349                	.insn	2, 0x1349
 84a:	00000b2f          	.insn	4, 0x0b2f
    for (const char *p = fmt; *p; p++) {
 84e:	25011117          	auipc	sp,0x25011
 852:	130e                	.insn	2, 0x130e
        if (*p == '0') {
 854:	1b1f030b          	.insn	4, 0x1b1f030b
 858:	551f 1117 1001      	.insn	6, 0x10011117551f
            p++;
 85e:	18000017          	auipc	zero,0x18000
        pad_char  = ' ';
 862:	0b0b000f          	.insn	4, 0x0b0b000f
 866:	00000e03          	lb	t3,0(zero) # 0 <_start>
            pad_width = pad_width * 10 + (*p - '0');
 86a:	2419                	.insn	2, 0x2419
            p++;
 86c:	0b00                	.insn	2, 0x0b00
 86e:	030b3e0b          	.insn	4, 0x030b3e0b
            pad_width = pad_width * 10 + (*p - '0');
 872:	0008                	.insn	2, 0x0008
        while (*p >= '0' && *p <= '9') {
 874:	1a00                	.insn	2, 0x1a00
 876:	0018                	.insn	2, 0x0018
 878:	0000                	.insn	2, 0x
 87a:	03000a1b          	.insn	4, 0x03000a1b
 87e:	3a0e                	.insn	2, 0x3a0e
 880:	390b3b0b          	.insn	4, 0x390b3b0b
        switch (*p) {
 884:	0001110b          	.insn	4, 0x0001110b
 888:	1c00                	.insn	2, 0x1c00
 88a:	1755010b          	.insn	4, 0x1755010b
 88e:	0000                	.insn	2, 0x
 890:	0b1d                	.insn	2, 0x0b1d
 892:	1101                	.insn	2, 0x1101
 894:	1201                	.insn	2, 0x1201
 896:	0106                	.insn	2, 0x0106
 898:	1e000013          	li	zero,480
 89c:	0148                	.insn	2, 0x0148
 89e:	017d                	.insn	2, 0x017d
 8a0:	0000137f 0200491f 	.insn	12, 0x00187e180200491f0000137f
 8a8:	00187e18 
 8ac:	2000                	.insn	2, 0x2000
 8ae:	0b0b000f          	.insn	4, 0x0b0b000f
    mmio_write32(UART_DATA_REG, (uint8_t)c);
 8b2:	1349                	.insn	2, 0x1349
 8b4:	0000                	.insn	2, 0x
 8b6:	2e21                	.insn	2, 0x2e21
        p++;
 8b8:	0301                	.insn	2, 0x0301
 8ba:	3a0e                	.insn	2, 0x3a0e
        pad_char  = ' ';
 8bc:	390b3b0b          	.insn	4, 0x390b3b0b
 8c0:	1119270b          	.insn	4, 0x1119270b
        switch (*p) {
 8c4:	1201                	.insn	2, 0x1201
 8c6:	4006                	.insn	2, 0x4006
 8c8:	7a18                	.insn	2, 0x7a18
 8ca:	0119                	.insn	2, 0x0119
 8cc:	22000013          	li	zero,544
 8d0:	012e                	.insn	2, 0x012e
 8d2:	0e03193f 0b3b0b3a 	.insn	8, 0x0b3b0b3a0e03193f
            put_int(va_arg(ap, int32_t), pad_width, pad_char);
 8da:	0b39                	.insn	2, 0x0b39
 8dc:	01111927          	.insn	4, 0x01111927
 8e0:	0612                	.insn	2, 0x0612
 8e2:	1840                	.insn	2, 0x1840
    if (val < 0) {
 8e4:	197a                	.insn	2, 0x197a
 8e6:	1301                	.insn	2, 0x1301
 8e8:	0000                	.insn	2, 0x
 8ea:	3f012e23          	sw	a6,1020(sp) # 25011c4a <__stack_top+0x4fd1c4a>
 8ee:	0319                	.insn	2, 0x0319
 8f0:	3a0e                	.insn	2, 0x3a0e
 8f2:	390b3b0b          	.insn	4, 0x390b3b0b
        put_uint((uint32_t)(-(int64_t)val), 10, 0, pad_width, pad_char);
 8f6:	2019270b          	.insn	4, 0x2019270b
 8fa:	0013010b          	.insn	4, 0x0013010b
 8fe:	2400                	.insn	2, 0x2400
            put_uint((uint32_t)(uintptr_t)va_arg(ap, void *), 16, 0, 8, '0');
 900:	012e                	.insn	2, 0x012e
 902:	0b3a0e03          	lb	t3,179(s4)
            break;
 906:	0b390b3b          	.insn	4, 0x0b390b3b
        switch (*p) {
 90a:	13491927          	.insn	4, 0x13491927
 90e:	0b20                	.insn	2, 0x0b20
 910:	1301                	.insn	2, 0x1301
 912:	0000                	.insn	2, 0x
 914:	2e25                	.insn	2, 0x2e25
 916:	3101                	.insn	2, 0x3101
 918:	12011113          	.insn	4, 0x12011113
 91c:	4006                	.insn	2, 0x4006
 91e:	7a18                	.insn	2, 0x7a18
            const char *s = va_arg(ap, const char *);
 920:	0019                	.insn	2, 0x0019
 922:	2600                	.insn	2, 0x2600
 924:	0005                	.insn	2, 0x0005
 926:	1331                	.insn	2, 0x1331
 928:	1802                	.insn	2, 0x1802
 92a:	0000                	.insn	2, 0x
 92c:	0100                	.insn	2, 0x0100
 92e:	0111                	.insn	2, 0x0111
            if (!s) s = "(null)";
 930:	1710                	.insn	2, 0x1710
 932:	0111                	.insn	2, 0x0111
 934:	0f12                	.insn	2, 0x0f12
 936:	0e1b0e03          	lb	t3,225(s6)
 93a:	0e25                	.insn	2, 0x0e25
            uart_puts(s);
 93c:	00000513          	li	a0,0
            break;
 940:	2e02                	.insn	2, 0x2e02
 942:	0300                	.insn	2, 0x0300
        switch (*p) {
 944:	3f0e                	.insn	2, 0x3f0e
 946:	4919                	.insn	2, 0x4919
 948:	1115                	.insn	2, 0x1115
 94a:	1201                	.insn	2, 0x1201
            put_uint(va_arg(ap, uint32_t), 16, 0, pad_width, pad_char);
 94c:	0300000f          	fence	rw,unknown
 950:	0000003b          	.insn	4, 0x003b
 954:	0100                	.insn	2, 0x0100
 956:	0111                	.insn	2, 0x0111
            put_uint((uint32_t)(uintptr_t)va_arg(ap, void *), 16, 0, 8, '0');
 958:	1710                	.insn	2, 0x1710
 95a:	0111                	.insn	2, 0x0111
 95c:	0f12                	.insn	2, 0x0f12
 95e:	0e1b0e03          	lb	t3,225(s6)
            uart_putc((char)va_arg(ap, int));
 962:	0e25                	.insn	2, 0x0e25
 964:	00000513          	li	a0,0
 968:	2e02                	.insn	2, 0x2e02
 96a:	0300                	.insn	2, 0x0300
    mmio_write32(UART_DATA_REG, (uint8_t)c);
 96c:	3f0e                	.insn	2, 0x3f0e
 96e:	4919                	.insn	2, 0x4919
 970:	1115                	.insn	2, 0x1115
 972:	1201                	.insn	2, 0x1201
 974:	0300000f          	fence	rw,unknown
}
 978:	0000003b          	.insn	4, 0x003b
	...

Disassembly of section .debug_loclists:

00000000 <.debug_loclists>:
    la      gp, __global_pointer$
   0:	00f6                	.insn	2, 0x00f6
   2:	0000                	.insn	2, 0x
   4:	0005                	.insn	2, 0x0005
   6:	0004                	.insn	2, 0x0004
    la      sp, __stack_top
   8:	0000                	.insn	2, 0x
   a:	0000                	.insn	2, 0x
   c:	b006                	.insn	2, 0xb006
   e:	0001                	.insn	2, 0x0001
    la      a0, _data_lma
  10:	0400                	.insn	2, 0x0400
  12:	2800                	.insn	2, 0x2800
  14:	3002                	.insn	2, 0x3002
  16:	049f 3c28 5801      	.insn	6, 0x58013c28049f
    la      a1, _data
  1c:	3c04                	.insn	2, 0x3c04
  1e:	0340                	.insn	2, 0x0340
    la      a2, _edata
  20:	7f78                	.insn	2, 0x7f78
  22:	049f 5c40 5801      	.insn	6, 0x58015c40049f
    bgeu    a1, a2, 2f
  28:	0600                	.insn	2, 0x0600
  2a:	020c                	.insn	2, 0x020c
    lw      t0, 0(a0)
  2c:	0000                	.insn	2, 0x
  2e:	0004                	.insn	2, 0x0004
    sw      t0, 0(a1)
  30:	0228                	.insn	2, 0x0228
  32:	9f30                	.insn	2, 0x9f30
    addi    a0, a0, 4
  34:	2804                	.insn	2, 0x2804
  36:	013c                	.insn	2, 0x013c
    addi    a1, a1, 4
  38:	0458                	.insn	2, 0x0458
  3a:	403c                	.insn	2, 0x403c
    bltu    a1, a2, 1b
  3c:	9f7f7803          	.insn	4, 0x9f7f7803
    la      a0, _fbss
  40:	4004                	.insn	2, 0x4004
  42:	0158                	.insn	2, 0x0158
  44:	0058                	.insn	2, 0x0058
  46:	b406                	.insn	2, 0xb406
    la      a1, _end
  48:	0002                	.insn	2, 0x0002
  4a:	0400                	.insn	2, 0x0400
  4c:	1300                	.insn	2, 0x1300
  4e:	5a01                	.insn	2, 0x5a01
    bgeu    a0, a1, 2f
  50:	1304                	.insn	2, 0x1304
  52:	0a14                	.insn	2, 0x0a14
    sw      zero, 0(a0)
  54:	0aa503a3          	sb	a0,167(a0)
    addi    a0, a0, 4
  58:	a826                	.insn	2, 0xa826
  5a:	a82d                	.insn	2, 0xa82d
    bltu    a0, a1, 1b
  5c:	9f00                	.insn	2, 0x9f00
  5e:	0800                	.insn	2, 0x0800
    call    main
  60:	0278                	.insn	2, 0x0278
  62:	0000                	.insn	2, 0x
    j       .L_halt
  64:	0128                	.insn	2, 0x0128
  66:	005c                	.insn	2, 0x005c
  68:	7c06                	.insn	2, 0x7c06
  6a:	0002                	.insn	2, 0x0002
  6c:	0400                	.insn	2, 0x0400
  6e:	1800                	.insn	2, 0x1800
    addi    sp, sp, -FRAME_SIZE
  70:	5f01                	.insn	2, 0x5f01
  72:	1804                	.insn	2, 0x1804
    sw      x1,  OFF_X(1)(sp)
  74:	0438                	.insn	2, 0x0438
  76:	f87e                	.insn	2, 0xf87e
    sw      x2,  OFF_X(2)(sp)            /* original sp is sp+FRAME_SIZE */
  78:	9f58                	.insn	2, 0x9f58
  7a:	0800                	.insn	2, 0x0800
    sw      x3,  OFF_X(3)(sp)
  7c:	0274                	.insn	2, 0x0274
  7e:	0000                	.insn	2, 0x
    sw      x4,  OFF_X(4)(sp)
  80:	0604                	.insn	2, 0x0604
  82:	fc0c                	.insn	2, 0xfc0c
    sw      x5,  OFF_X(5)(sp)
  84:	9f4200bf 02780800 	.insn	8, 0x027808009f4200bf
    sw      x7,  OFF_X(7)(sp)
  8c:	0000                	.insn	2, 0x
  8e:	0604                	.insn	2, 0x0604
    sw      x8,  OFF_X(8)(sp)
  90:	f80c                	.insn	2, 0xf80c
  92:	9f4200bf 027c0800 	.insn	8, 0x027c08009f4200bf
    sw      x10, OFF_X(10)(sp)
  9a:	0000                	.insn	2, 0x
    sw      x11, OFF_X(11)(sp)
  9c:	0604                	.insn	2, 0x0604
  9e:	fc0c                	.insn	2, 0xfc0c
    sw      x12, OFF_X(12)(sp)
  a0:	9f4200bf 02980800 	.insn	8, 0x029808009f4200bf
    sw      x14, OFF_X(14)(sp)
  a8:	0000                	.insn	2, 0x
  aa:	0618                	.insn	2, 0x0618
    sw      x15, OFF_X(15)(sp)
  ac:	935e                	.insn	2, 0x935e
  ae:	5f04                	.insn	2, 0x5f04
    sw      x16, OFF_X(16)(sp)
  b0:	08000493          	li	s1,128
    sw      x17, OFF_X(17)(sp)
  b4:	0298                	.insn	2, 0x0298
  b6:	0000                	.insn	2, 0x
    sw      x18, OFF_X(18)(sp)
  b8:	030c                	.insn	2, 0x030c
  ba:	ff09                	.insn	2, 0xff09
    sw      x19, OFF_X(19)(sp)
  bc:	009f 9808 0002      	.insn	6, 0x00029808009f
    sw      x20, OFF_X(20)(sp)
  c2:	0c00                	.insn	2, 0x0c00
    sw      x21, OFF_X(21)(sp)
  c4:	0c06                	.insn	2, 0x0c06
  c6:	4004                	.insn	2, 0x4004
    sw      x22, OFF_X(22)(sp)
  c8:	4200                	.insn	2, 0x4200
  ca:	009f a408 0002      	.insn	6, 0x0002a408009f
    sw      x24, OFF_X(24)(sp)
  d0:	0800                	.insn	2, 0x0800
  d2:	5e01                	.insn	2, 0x5e01
    sw      x25, OFF_X(25)(sp)
  d4:	0800                	.insn	2, 0x0800
  d6:	02a4                	.insn	2, 0x02a4
    sw      x26, OFF_X(26)(sp)
  d8:	0000                	.insn	2, 0x
  da:	0608                	.insn	2, 0x0608
    sw      x27, OFF_X(27)(sp)
  dc:	000c                	.insn	2, 0x000c
  de:	0040                	.insn	2, 0x0040
    sw      x28, OFF_X(28)(sp)
  e0:	9f42                	.insn	2, 0x9f42
  e2:	0800                	.insn	2, 0x0800
    sw      x29, OFF_X(29)(sp)
  e4:	02ac                	.insn	2, 0x02ac
  e6:	0000                	.insn	2, 0x
    sw      x30, OFF_X(30)(sp)
  e8:	0104                	.insn	2, 0x0104
  ea:	005f ac08 0002      	.insn	6, 0x0002ac08005f
    addi    t0, sp, FRAME_SIZE
  f0:	0400                	.insn	2, 0x0400
  f2:	0c06                	.insn	2, 0x0c06
    sw      t0, OFF_X(2)(sp)
  f4:	4004                	.insn	2, 0x4004
  f6:	4200                	.insn	2, 0x4200
    csrr    t0, mepc
  f8:	009f 005c 0000      	.insn	6, 0x005c009f
    sw      t0, OFF_MEPC(sp)
  fe:	0005                	.insn	2, 0x0005
    csrr    t0, mcause
 100:	0004                	.insn	2, 0x0004
 102:	0000                	.insn	2, 0x
    sw      t0, OFF_MCAUSE(sp)
 104:	0000                	.insn	2, 0x
 106:	0c08                	.insn	2, 0x0c08
    csrr    t0, mtval
 108:	0004                	.insn	2, 0x0004
 10a:	2000                	.insn	2, 0x2000
    sw      t0, OFF_MTVAL(sp)
 10c:	5f01                	.insn	2, 0x5f01
 10e:	0600                	.insn	2, 0x0600
    csrr    t0, mstatus
 110:	041c                	.insn	2, 0x041c
 112:	0000                	.insn	2, 0x
    sw      t0, OFF_MSTATUS(sp)
 114:	0004                	.insn	2, 0x0004
 116:	010c                	.insn	2, 0x010c
    mv      a0, sp
 118:	1b0c045b          	.insn	4, 0x1b0c045b
    call    bsp_trap_dispatch
 11c:	0305                	.insn	2, 0x0305
 11e:	0000                	.insn	2, 0x
    lw      t0, OFF_MEPC(sp)
 120:	2000                	.insn	2, 0x2000
 122:	0600                	.insn	2, 0x0600
    csrw    mepc, t0
 124:	0388                	.insn	2, 0x0388
 126:	0000                	.insn	2, 0x
    lw      t0, OFF_MSTATUS(sp)
 128:	0004                	.insn	2, 0x0004
 12a:	0108                	.insn	2, 0x0108
    csrw    mstatus, t0
 12c:	045a                	.insn	2, 0x045a
 12e:	7008                	.insn	2, 0x7008
    lw      x1,  OFF_X(1)(sp)
 130:	5c01                	.insn	2, 0x5c01
 132:	0800                	.insn	2, 0x0800
    lw      x3,  OFF_X(3)(sp)
 134:	03a0                	.insn	2, 0x03a0
 136:	0000                	.insn	2, 0x
    lw      x4,  OFF_X(4)(sp)
 138:	0150                	.insn	2, 0x0150
 13a:	005a                	.insn	2, 0x005a
    lw      x5,  OFF_X(5)(sp)
 13c:	a008                	.insn	2, 0xa008
 13e:	50000003          	lb	zero,1280(zero) # 500 <default_exception+0x4>
    lw      x6,  OFF_X(6)(sp)
 142:	7a0c                	.insn	2, 0x7a0c
    lw      x7,  OFF_X(7)(sp)
 144:	0800                	.insn	2, 0x0800
 146:	1e38                	.insn	2, 0x1e38
    lw      x8,  OFF_X(8)(sp)
 148:	00203003          	.insn	4, 0x00203003
    lw      x9,  OFF_X(9)(sp)
 14c:	2220                	.insn	2, 0x2220
 14e:	009f a008 0003      	.insn	6, 0x0003a008009f
    lw      x11, OFF_X(11)(sp)
 154:	1c00                	.insn	2, 0x1c00
 156:	3002                	.insn	2, 0x3002
    lw      x12, OFF_X(12)(sp)
 158:	009f 0351 0000      	.insn	6, 0x0351009f
    lw      x13, OFF_X(13)(sp)
 15e:	0005                	.insn	2, 0x0005
    lw      x14, OFF_X(14)(sp)
 160:	0004                	.insn	2, 0x0004
 162:	0000                	.insn	2, 0x
    lw      x15, OFF_X(15)(sp)
 164:	0000                	.insn	2, 0x
 166:	a808                	.insn	2, 0xa808
    lw      x16, OFF_X(16)(sp)
 168:	0006                	.insn	2, 0x0006
 16a:	1000                	.insn	2, 0x1000
    lw      x17, OFF_X(17)(sp)
 16c:	5e01                	.insn	2, 0x5e01
 16e:	0800                	.insn	2, 0x0800
    lw      x18, OFF_X(18)(sp)
 170:	069c                	.insn	2, 0x069c
 172:	0000                	.insn	2, 0x
    lw      x19, OFF_X(19)(sp)
 174:	060c                	.insn	2, 0x060c
 176:	040c                	.insn	2, 0x040c
    lw      x20, OFF_X(20)(sp)
 178:	2000                	.insn	2, 0x2000
 17a:	9f44                	.insn	2, 0x9f44
    lw      x21, OFF_X(21)(sp)
 17c:	0800                	.insn	2, 0x0800
 17e:	06ac                	.insn	2, 0x06ac
    lw      x22, OFF_X(22)(sp)
 180:	0000                	.insn	2, 0x
 182:	0104                	.insn	2, 0x0104
    lw      x23, OFF_X(23)(sp)
 184:	005e                	.insn	2, 0x005e
 186:	ac08                	.insn	2, 0xac08
    lw      x24, OFF_X(24)(sp)
 188:	0006                	.insn	2, 0x0006
 18a:	0400                	.insn	2, 0x0400
    lw      x25, OFF_X(25)(sp)
 18c:	0c06                	.insn	2, 0x0c06
 18e:	0004                	.insn	2, 0x0004
    lw      x26, OFF_X(26)(sp)
 190:	4420                	.insn	2, 0x4420
 192:	009f b008 0006      	.insn	6, 0x0006b008009f
    lw      x28, OFF_X(28)(sp)
 198:	0c00                	.insn	2, 0x0c00
 19a:	9fff0903          	lb	s2,-1537(t5)
    lw      x29, OFF_X(29)(sp)
 19e:	0800                	.insn	2, 0x0800
    lw      x30, OFF_X(30)(sp)
 1a0:	06b0                	.insn	2, 0x06b0
 1a2:	0000                	.insn	2, 0x
    lw      x31, OFF_X(31)(sp)
 1a4:	060c                	.insn	2, 0x060c
 1a6:	040c                	.insn	2, 0x040c
    addi    sp, sp, FRAME_SIZE
 1a8:	0040                	.insn	2, 0x0040
 1aa:	9f42                	.insn	2, 0x9f42
    mret
 1ac:	0800                	.insn	2, 0x0800
 1ae:	06bc                	.insn	2, 0x06bc
{
 1b0:	0000                	.insn	2, 0x
 1b2:	0308                	.insn	2, 0x0308
 1b4:	ff09                	.insn	2, 0xff09
 1b6:	009f bc08 0006      	.insn	6, 0x0006bc08009f
 1bc:	0800                	.insn	2, 0x0800
 1be:	0c06                	.insn	2, 0x0c06
 1c0:	4000                	.insn	2, 0x4000
 1c2:	4200                	.insn	2, 0x4200
 1c4:	009f c408 0006      	.insn	6, 0x0006c408009f
    for (int i = 0; i < TASK_ITERS; i++) {
 1ca:	0800                	.insn	2, 0x0800
        uart_printf("[task1] iter=%d tick=%u\n", i, timer_count);
 1cc:	3002                	.insn	2, 0x3002
 1ce:	009f c408 0006      	.insn	6, 0x0006c408009f
    for (int i = 0; i < TASK_ITERS; i++) {
 1d4:	0800                	.insn	2, 0x0800
 1d6:	0805                	.insn	2, 0x0805
        uart_printf("[task1] iter=%d tick=%u\n", i, timer_count);
 1d8:	4784                	.insn	2, 0x4784
 1da:	9f24                	.insn	2, 0x9f24
 1dc:	0600                	.insn	2, 0x0600
 1de:	0580                	.insn	2, 0x0580
 1e0:	0000                	.insn	2, 0x
 1e2:	0004                	.insn	2, 0x0004
 1e4:	045a0143          	.insn	4, 0x045a0143
    for (int i = 0; i < TASK_ITERS; i++) {
 1e8:	a30a4443          	.insn	4, 0xa30a4443
        task_yield();
 1ec:	260aa503          	lw	a0,608(s5)
    for (int i = 0; i < TASK_ITERS; i++) {
 1f0:	2da8                	.insn	2, 0x2da8
 1f2:	00a8                	.insn	2, 0x00a8
    task_done[1] = 1;
 1f4:	049f 5444 5a01      	.insn	6, 0x5a015444049f
 1fa:	5404                	.insn	2, 0x5404
 1fc:	0158                	.insn	2, 0x0158
 1fe:	045e                	.insn	2, 0x045e
 200:	f058                	.insn	2, 0xf058
 202:	0100                	.insn	2, 0x0100
    for (;;) task_yield();
 204:	045a                	.insn	2, 0x045a
 206:	00f0                	.insn	2, 0x00f0
 208:	00f4                	.insn	2, 0x00f4
 20a:	5e01                	.insn	2, 0x5e01
{
 20c:	f404                	.insn	2, 0xf404
 20e:	f700                	.insn	2, 0xf700
 210:	0100                	.insn	2, 0x0100
 212:	045a                	.insn	2, 0x045a
 214:	00f800f7          	.insn	4, 0x00f800f7
 218:	a30a                	.insn	2, 0xa30a
 21a:	260aa503          	lw	a0,608(s5)
 21e:	2da8                	.insn	2, 0x2da8
 220:	00a8                	.insn	2, 0x00a8
 222:	049f 00f8 01a8      	.insn	6, 0x01a800f8049f
        uart_printf("[task0] iter=%d tick=%u\n", i, timer_count);
 228:	5a01                	.insn	2, 0x5a01
 22a:	a804                	.insn	2, 0xa804
 22c:	c801                	.insn	2, 0xc801
 22e:	0a01                	.insn	2, 0x0a01
    for (int i = 0; i < TASK_ITERS; i++) {
 230:	0aa503a3          	sb	a0,167(a0)
        uart_printf("[task0] iter=%d tick=%u\n", i, timer_count);
 234:	a826                	.insn	2, 0xa826
 236:	a82d                	.insn	2, 0xa82d
 238:	9f00                	.insn	2, 0x9f00
 23a:	c804                	.insn	2, 0xc804
 23c:	cc01                	.insn	2, 0xcc01
 23e:	0101                	.insn	2, 0x0101
 240:	045a                	.insn	2, 0x045a
 242:	01cc                	.insn	2, 0x01cc
    for (int i = 0; i < TASK_ITERS; i++) {
 244:	01d8                	.insn	2, 0x01d8
 246:	a30a                	.insn	2, 0xa30a
        task_yield();
 248:	260aa503          	lw	a0,608(s5)
    for (int i = 0; i < TASK_ITERS; i++) {
 24c:	2da8                	.insn	2, 0x2da8
 24e:	00a8                	.insn	2, 0x00a8
    task_done[0] = 1;
 250:	049f 01d8 0280      	.insn	6, 0x028001d8049f
 256:	5a01                	.insn	2, 0x5a01
 258:	0600                	.insn	2, 0x0600
 25a:	0584                	.insn	2, 0x0584
    for (;;) task_yield();
 25c:	0000                	.insn	2, 0x
 25e:	0004                	.insn	2, 0x0004
 260:	010c                	.insn	2, 0x010c
 262:	045f 3f0c 7a03      	.insn	6, 0x7a033f0c045f
    return *(volatile uint32_t *)addr;
 268:	0184                	.insn	2, 0x0184
 26a:	4004                	.insn	2, 0x4004
 26c:	0350                	.insn	2, 0x0350
 26e:	847a                	.insn	2, 0x847a
 270:	0401                	.insn	2, 0x0401
 272:	5450                	.insn	2, 0x5450
 274:	01847e03          	.insn	4, 0x01847e03
 278:	5404                	.insn	2, 0x5404
 27a:	00ec                	.insn	2, 0x00ec
 27c:	01847a03          	.insn	4, 0x01847a03
    } while (hi0 != hi1);
 280:	ec04                	.insn	2, 0xec04
 282:	f000                	.insn	2, 0xf000
    uint64_t deadline = clint_mtime() + delta_ticks;
 284:	0300                	.insn	2, 0x0300
 286:	847e                	.insn	2, 0x847e
 288:	0401                	.insn	2, 0x0401
 28a:	00f0                	.insn	2, 0x00f0
 28c:	7a0300f3          	.insn	4, 0x7a0300f3
 290:	0184                	.insn	2, 0x0184
 292:	f404                	.insn	2, 0xf404
 294:	a400                	.insn	2, 0xa400
 296:	0301                	.insn	2, 0x0301
    *(volatile uint32_t *)addr = v;
 298:	847a                	.insn	2, 0x847a
 29a:	0401                	.insn	2, 0x0401
 29c:	01a4                	.insn	2, 0x01a4
 29e:	a30c01ab          	.insn	4, 0xa30c01ab
 2a2:	260aa503          	lw	a0,608(s5)
 2a6:	2da8                	.insn	2, 0x2da8
 2a8:	00a8                	.insn	2, 0x00a8
 2aa:	04018423          	sb	zero,72(gp) # 2000084c <__global_pointer$+0x48>
 2ae:	01c4                	.insn	2, 0x01c4
}
 2b0:	01c8                	.insn	2, 0x01c8
 2b2:	01847a03          	.insn	4, 0x01847a03
    timer_count++;
 2b6:	c804                	.insn	2, 0xc804
 2b8:	cf01                	.insn	2, 0xcf01
 2ba:	0c01                	.insn	2, 0x0c01
 2bc:	0aa503a3          	sb	a0,167(a0)
 2c0:	a826                	.insn	2, 0xa826
 2c2:	a82d                	.insn	2, 0xa82d
    clint_schedule_relative(TICK_INTERVAL_TICKS);
 2c4:	2300                	.insn	2, 0x2300
 2c6:	0184                	.insn	2, 0x0184
{
 2c8:	d404                	.insn	2, 0xd404
 2ca:	e401                	.insn	2, 0xe401
 2cc:	0101                	.insn	2, 0x0101
 2ce:	045f 01e4 01fc      	.insn	6, 0x01fc01e4045f
 2d4:	01847a03          	.insn	4, 0x01847a03
    bsp_init();
 2d8:	0600                	.insn	2, 0x0600
 2da:	0594                	.insn	2, 0x0594
    uart_puts("os_demo boot\n");
 2dc:	0000                	.insn	2, 0x
 2de:	0004                	.insn	2, 0x0004
 2e0:	045f012f          	.insn	4, 0x045f012f
 2e4:	3030                	.insn	2, 0x3030
 2e6:	5f01                	.insn	2, 0x5f01
    bsp_set_timer_handler(timer_tick);
 2e8:	3004                	.insn	2, 0x3004
 2ea:	093c                	.insn	2, 0x093c
 2ec:	847a                	.insn	2, 0x847a
 2ee:	0601                	.insn	2, 0x0601
    clint_schedule_relative(TICK_INTERVAL_TICKS);
 2f0:	2431                	.insn	2, 0x2431
 2f2:	2531                	.insn	2, 0x2531
    bsp_enable_timer_interrupt();
 2f4:	049f 4444 5f01      	.insn	6, 0x5f014444049f
    bsp_irq_enable();
 2fa:	4404                	.insn	2, 0x4404
    sched_init();
 2fc:	095c                	.insn	2, 0x095c
 2fe:	847a                	.insn	2, 0x847a
    if (task_create(task0) < 0 || task_create(task1) < 0) {
 300:	0601                	.insn	2, 0x0601
 302:	2431                	.insn	2, 0x2431
 304:	2531                	.insn	2, 0x2531
 306:	049f 605c 7e09      	.insn	6, 0x7e09605c049f
 30c:	0184                	.insn	2, 0x0184
 30e:	3106                	.insn	2, 0x3106
 310:	3124                	.insn	2, 0x3124
 312:	9f25                	.insn	2, 0x9f25
 314:	6404                	.insn	2, 0x6404
 316:	00fc                	.insn	2, 0x00fc
    while (!(task_done[0] && task_done[1])) {
 318:	5f01                	.insn	2, 0x5f01
 31a:	fc04                	.insn	2, 0xfc04
 31c:	9400                	.insn	2, 0x9400
 31e:	0901                	.insn	2, 0x0901
 320:	847a                	.insn	2, 0x847a
 322:	0601                	.insn	2, 0x0601
 324:	2431                	.insn	2, 0x2431
 326:	2531                	.insn	2, 0x2531
 328:	049f 0194 019b      	.insn	6, 0x019b0194049f
 32e:	a312                	.insn	2, 0xa312
    bsp_irq_disable();
 330:	260aa503          	lw	a0,608(s5)
    uart_printf("os_demo: all tasks finished (ticks=%u)\n", timer_count);
 334:	2da8                	.insn	2, 0x2da8
 336:	00a8                	.insn	2, 0x00a8
 338:	06018423          	sb	zero,104(gp) # 2000086c <__global_pointer$+0x68>
 33c:	2431                	.insn	2, 0x2431
 33e:	2531                	.insn	2, 0x2531
 340:	049f 01b4 01b8      	.insn	6, 0x01b801b4049f
 346:	7a09                	.insn	2, 0x7a09
    uart_puts("OS_DEMO_PASS\n");
 348:	0184                	.insn	2, 0x0184
 34a:	3106                	.insn	2, 0x3106
 34c:	3124                	.insn	2, 0x3124
 34e:	9f25                	.insn	2, 0x9f25
 350:	b804                	.insn	2, 0xb804
 352:	bf01                	.insn	2, 0xbf01
        __asm__ volatile("wfi");
 354:	1201                	.insn	2, 0x1201
 356:	0aa503a3          	sb	a0,167(a0)
    for (;;) {
 35a:	a826                	.insn	2, 0xa826
        uart_puts("os_demo: task_create failed\n");
 35c:	a82d                	.insn	2, 0xa82d
 35e:	2300                	.insn	2, 0x2300
 360:	0184                	.insn	2, 0x0184
 362:	3106                	.insn	2, 0x3106
 364:	3124                	.insn	2, 0x3124
 366:	9f25                	.insn	2, 0x9f25
        for (;;) {}
 368:	0600                	.insn	2, 0x0600
 36a:	0604                	.insn	2, 0x0604
        task_yield();
 36c:	0000                	.insn	2, 0x
 36e:	0004                	.insn	2, 0x0004
 370:	045b012b          	.insn	4, 0x045b012b
    ntasks   = 1;
 374:	9102342b          	.insn	4, 0x9102342b
 378:	046c                	.insn	2, 0x046c
 37a:	4f44                	.insn	2, 0x4f44
    cur_task = 0;
 37c:	5b01                	.insn	2, 0x5b01
 37e:	0800                	.insn	2, 0x0800
 380:	05f8                	.insn	2, 0x05f8
 382:	0000                	.insn	2, 0x
}
 384:	060c                	.insn	2, 0x060c
 386:	040c                	.insn	2, 0x040c
{
 388:	2000                	.insn	2, 0x2000
 38a:	9f44                	.insn	2, 0x9f44
    if (ntasks >= SCHED_MAX_TASKS) {
 38c:	0800                	.insn	2, 0x0800
 38e:	0630                	.insn	2, 0x0630
 390:	0000                	.insn	2, 0x
 392:	0208                	.insn	2, 0x0208
 394:	6c91                	.insn	2, 0x6c91
 396:	0800                	.insn	2, 0x0800
    int id = ntasks++;
 398:	0630                	.insn	2, 0x0630
 39a:	0000                	.insn	2, 0x
 39c:	0608                	.insn	2, 0x0608
 39e:	040c                	.insn	2, 0x040c
    struct sched_ctx *c = &tasks[id];
 3a0:	2000                	.insn	2, 0x2000
 3a2:	9f44                	.insn	2, 0x9f44
 3a4:	0800                	.insn	2, 0x0800
 3a6:	0648                	.insn	2, 0x0648
 3a8:	0000                	.insn	2, 0x
 3aa:	005b010b          	.insn	4, 0x005b010b
 3ae:	5806                	.insn	2, 0x5806
 3b0:	0006                	.insn	2, 0x0006
 3b2:	0400                	.insn	2, 0x0400
 3b4:	1000                	.insn	2, 0x1000
 3b6:	5f01                	.insn	2, 0x5f01
 3b8:	1004                	.insn	2, 0x1004
 3ba:	0328                	.insn	2, 0x0328
        p[i] = 0;
 3bc:	847a                	.insn	2, 0x847a
 3be:	0001                	.insn	2, 0x0001
    for (unsigned i = 0; i < sizeof(*c) / sizeof(uint32_t); i++) {
 3c0:	7408                	.insn	2, 0x7408
 3c2:	0006                	.insn	2, 0x0006
 3c4:	0400                	.insn	2, 0x0400
 3c6:	5f01                	.insn	2, 0x5f01
    c->ra = (uint32_t)(uintptr_t)entry;
 3c8:	0600                	.insn	2, 0x0600
 3ca:	0000                	.insn	2, 0x
 3cc:	0000                	.insn	2, 0x
 3ce:	0004                	.insn	2, 0x0004
    c->sp = (uint32_t)(uintptr_t)&stacks[id][SCHED_STACK_SIZE];
 3d0:	0110                	.insn	2, 0x0110
 3d2:	045a                	.insn	2, 0x045a
    c->ra = (uint32_t)(uintptr_t)entry;
 3d4:	2010                	.insn	2, 0x2010
 3d6:	a30a                	.insn	2, 0xa30a
    c->sp = (uint32_t)(uintptr_t)&stacks[id][SCHED_STACK_SIZE];
 3d8:	260aa503          	lw	a0,608(s5)
 3dc:	2da8                	.insn	2, 0x2da8
 3de:	00a8                	.insn	2, 0x00a8
 3e0:	009f 0006 0000      	.insn	6, 0x0006009f
    c->ra = (uint32_t)(uintptr_t)entry;
 3e6:	0400                	.insn	2, 0x0400
    c->sp = (uint32_t)(uintptr_t)&stacks[id][SCHED_STACK_SIZE];
 3e8:	1000                	.insn	2, 0x1000
 3ea:	5a01                	.insn	2, 0x5a01
    return id;
 3ec:	1004                	.insn	2, 0x1004
 3ee:	0a20                	.insn	2, 0x0a20
        return -1;
 3f0:	0aa503a3          	sb	a0,167(a0)
}
 3f4:	a826                	.insn	2, 0xa826
 3f6:	a82d                	.insn	2, 0xa82d
    if (ntasks <= 1) return;
 3f8:	9f00                	.insn	2, 0x9f00
 3fa:	0600                	.insn	2, 0x0600
 3fc:	0510                	.insn	2, 0x0510
 3fe:	0000                	.insn	2, 0x
 400:	0004                	.insn	2, 0x0004
 402:	045a011b          	.insn	4, 0x045a011b
    int prev = cur_task;
 406:	a30a1c1b          	.insn	4, 0xa30a1c1b
 40a:	260aa503          	lw	a0,608(s5)
    sched_switch(&tasks[prev], &tasks[next]);
 40e:	2da8                	.insn	2, 0x2da8
 410:	00a8                	.insn	2, 0x00a8
 412:	009f 1008 0005      	.insn	6, 0x00051008009f
    int next = (cur_task + 1) % ntasks;
 418:	1400                	.insn	2, 0x1400
 41a:	3002                	.insn	2, 0x3002
    cur_task = next;
 41c:	009f 1008 0005      	.insn	6, 0x00051008009f
    sched_switch(&tasks[prev], &tasks[next]);
 422:	1400                	.insn	2, 0x1400
 424:	0805                	.insn	2, 0x0805
 426:	4784                	.insn	2, 0x4784
 428:	9f24                	.insn	2, 0x9f24
 42a:	0600                	.insn	2, 0x0600
 42c:	052c                	.insn	2, 0x052c
 42e:	0000                	.insn	2, 0x
 430:	0004                	.insn	2, 0x0004
 432:	045a0127          	.insn	4, 0x045a0127
 436:	a30a2827          	.insn	4, 0xa30a2827
}
 43a:	260aa503          	lw	a0,608(s5)
    sw   ra,  0(a0)
 43e:	2da8                	.insn	2, 0x2da8
    sw   sp,  4(a0)
 440:	00a8                	.insn	2, 0x00a8
 442:	009f 2c08 0005      	.insn	6, 0x00052c08009f
    sw   s1, 12(a0)
 448:	1400                	.insn	2, 0x1400
 44a:	9fff0903          	lb	s2,-1537(t5)
    sw   s2, 16(a0)
 44e:	0800                	.insn	2, 0x0800
    sw   s3, 20(a0)
 450:	052c                	.insn	2, 0x052c
 452:	0000                	.insn	2, 0x
    sw   s4, 24(a0)
 454:	0614                	.insn	2, 0x0614
 456:	040c                	.insn	2, 0x040c
    sw   s5, 28(a0)
 458:	0040                	.insn	2, 0x0040
 45a:	9f42                	.insn	2, 0x9f42
    sw   s6, 32(a0)
 45c:	0800                	.insn	2, 0x0800
 45e:	0540                	.insn	2, 0x0540
    sw   s7, 36(a0)
 460:	0000                	.insn	2, 0x
 462:	030c                	.insn	2, 0x030c
    sw   s8, 40(a0)
 464:	ff09                	.insn	2, 0xff09
 466:	009f 4008 0005      	.insn	6, 0x00054008009f
    sw   s10,48(a0)
 46c:	0c00                	.insn	2, 0x0c00
 46e:	0c06                	.insn	2, 0x0c06
    sw   s11,52(a0)
 470:	4000                	.insn	2, 0x4000
 472:	4200                	.insn	2, 0x4200
    lw   ra,  0(a1)
 474:	009f fc06 0004      	.insn	6, 0x0004fc06009f
    lw   sp,  4(a1)
 47a:	0400                	.insn	2, 0x0400
    lw   s0,  8(a1)
 47c:	1300                	.insn	2, 0x1300
 47e:	5a01                	.insn	2, 0x5a01
    lw   s1, 12(a1)
 480:	1304                	.insn	2, 0x1304
 482:	0a14                	.insn	2, 0x0a14
    lw   s2, 16(a1)
 484:	0aa503a3          	sb	a0,167(a0)
    lw   s3, 20(a1)
 488:	a826                	.insn	2, 0xa826
 48a:	a82d                	.insn	2, 0xa82d
    lw   s4, 24(a1)
 48c:	9f00                	.insn	2, 0x9f00
 48e:	0600                	.insn	2, 0x0600
    lw   s5, 28(a1)
 490:	04b0                	.insn	2, 0x04b0
 492:	0000                	.insn	2, 0x
    lw   s6, 32(a1)
 494:	0004                	.insn	2, 0x0004
 496:	0110                	.insn	2, 0x0110
    lw   s7, 36(a1)
 498:	045a                	.insn	2, 0x045a
 49a:	4c10                	.insn	2, 0x4c10
    lw   s8, 40(a1)
 49c:	5801                	.insn	2, 0x5801
 49e:	0600                	.insn	2, 0x0600
    lw   s9, 44(a1)
 4a0:	04b0                	.insn	2, 0x04b0
 4a2:	0000                	.insn	2, 0x
    lw   s10,48(a1)
 4a4:	0004                	.insn	2, 0x0004
 4a6:	045b0123          	sb	t0,66(s6)
    lw   s11,52(a1)
 4aa:	59014c23          	.insn	4, 0x59014c23
    ret
 4ae:	2700                	.insn	2, 0x2700
{
 4b0:	05000003          	lb	zero,80(zero) # 50 <_start+0x50>
 4b4:	0400                	.insn	2, 0x0400
 4b6:	0000                	.insn	2, 0x
 4b8:	0000                	.insn	2, 0x
 4ba:	0600                	.insn	2, 0x0600
    uart_puts("\n[bsp] UNHANDLED TRAP: ");
 4bc:	07a8                	.insn	2, 0x07a8
 4be:	0000                	.insn	2, 0x
 4c0:	0004                	.insn	2, 0x0004
 4c2:	0164                	.insn	2, 0x0164
{
 4c4:	045a                	.insn	2, 0x045a
 4c6:	b864                	.insn	2, 0xb864
 4c8:	0a04                	.insn	2, 0x0a04
 4ca:	0aa503a3          	sb	a0,167(a0)
 4ce:	a826                	.insn	2, 0xa826
    uart_puts("\n[bsp] UNHANDLED TRAP: ");
 4d0:	a82d                	.insn	2, 0xa82d
 4d2:	9f00                	.insn	2, 0x9f00
    uart_puts(tag);
 4d4:	0600                	.insn	2, 0x0600
 4d6:	0854                	.insn	2, 0x0854
 4d8:	0000                	.insn	2, 0x
 4da:	0004                	.insn	2, 0x0004
    uart_printf("  mcause=0x%08x  mepc=0x%08x  mtval=0x%08x  mstatus=0x%08x\n",
 4dc:	0214                	.insn	2, 0x0214
 4de:	9f30                	.insn	2, 0x9f30
 4e0:	1404                	.insn	2, 0x1404
 4e2:	0118                	.insn	2, 0x0118
 4e4:	045d                	.insn	2, 0x045d
 4e6:	6420                	.insn	2, 0x6420
 4e8:	5d01                	.insn	2, 0x5d01
 4ea:	6404                	.insn	2, 0x6404
 4ec:	0270                	.insn	2, 0x0270
 4ee:	9f30                	.insn	2, 0x9f30
 4f0:	7004                	.insn	2, 0x7004
 4f2:	01ac                	.insn	2, 0x01ac
 4f4:	5d01                	.insn	2, 0x5d01
 4f6:	b404                	.insn	2, 0xb404
    for (;;) {
 4f8:	eb01                	.insn	2, 0xeb01
 4fa:	0101                	.insn	2, 0x0101
    default_banner(f, "exception");
 4fc:	045d                	.insn	2, 0x045d
 4fe:	01f0                	.insn	2, 0x01f0
{
 500:	0284                	.insn	2, 0x0284
 502:	5d01                	.insn	2, 0x5d01
    default_banner(f, "exception");
 504:	8c04                	.insn	2, 0x8c04
 506:	c802                	.insn	2, 0xc802
{
 508:	0102                	.insn	2, 0x0102
 50a:	045d                	.insn	2, 0x045d
    default_banner(f, "exception");
 50c:	02d0                	.insn	2, 0x02d0
 50e:	02e0                	.insn	2, 0x02e0
{
 510:	5d01                	.insn	2, 0x5d01
 512:	e804                	.insn	2, 0xe804
 514:	f302                	.insn	2, 0xf302
 516:	0102                	.insn	2, 0x0102
 518:	005d                	.insn	2, 0x005d
 51a:	5406                	.insn	2, 0x5406
    default_banner(f, "unhandled msi");
 51c:	0008                	.insn	2, 0x0008
 51e:	0400                	.insn	2, 0x0400
 520:	0800                	.insn	2, 0x0800
 522:	9f200803          	lb	a6,-1550(zero) # fffff9f2 <__stack_top+0xdffbf9f2>
 526:	0804                	.insn	2, 0x0804
 528:	030c                	.insn	2, 0x030c
 52a:	3008                	.insn	2, 0x3008
{
 52c:	049f 4c14 5e01      	.insn	6, 0x5e014c14049f
 532:	6404                	.insn	2, 0x6404
 534:	0370                	.insn	2, 0x0370
 536:	2008                	.insn	2, 0x2008
 538:	049f ac70 0101      	.insn	6, 0x0101ac70049f
 53e:	045e                	.insn	2, 0x045e
    default_banner(f, "unhandled mti");
 540:	01b4                	.insn	2, 0x01b4
 542:	01c0                	.insn	2, 0x01c0
 544:	5e01                	.insn	2, 0x5e01
 546:	f004                	.insn	2, 0xf004
 548:	8401                	.insn	2, 0x8401
 54a:	0102                	.insn	2, 0x0102
 54c:	045e                	.insn	2, 0x045e
 54e:	028c                	.insn	2, 0x028c
 550:	0294                	.insn	2, 0x0294
 552:	5e01                	.insn	2, 0x5e01
void bsp_set_timer_handler(bsp_trap_handler_t h) { timer_handler = h; }
 554:	a804                	.insn	2, 0xa804
 556:	c802                	.insn	2, 0xc802
 558:	0102                	.insn	2, 0x0102
 55a:	045e                	.insn	2, 0x045e
void bsp_irq_enable(void)  { csr_set(mstatus, MSTATUS_MIE); }
 55c:	02d0                	.insn	2, 0x02d0
 55e:	02e0                	.insn	2, 0x02e0
 560:	5e01                	.insn	2, 0x5e01
 562:	0600                	.insn	2, 0x0600
 564:	07f4                	.insn	2, 0x07f4
 566:	0000                	.insn	2, 0x
void bsp_irq_disable(void) { csr_clear(mstatus, MSTATUS_MIE); }
 568:	0004                	.insn	2, 0x0004
 56a:	0118                	.insn	2, 0x0118
 56c:	045a                	.insn	2, 0x045a
 56e:	2818                	.insn	2, 0x2818
 570:	5801                	.insn	2, 0x5801
 572:	4c04                	.insn	2, 0x4c04
void bsp_enable_timer_interrupt(void)    { csr_set(mie, MIE_MTIE); }
 574:	0160                	.insn	2, 0x0160
 576:	0458                	.insn	2, 0x0458
 578:	6c60                	.insn	2, 0x6c60
 57a:	9f017803          	.insn	4, 0x9f017803
 57e:	7404                	.insn	2, 0x7404
    uint32_t mcause = f->mcause;
 580:	017c                	.insn	2, 0x017c
 582:	0458                	.insn	2, 0x0458
{
 584:	807c                	.insn	2, 0x807c
 586:	0301                	.insn	2, 0x0301
    if (mcause & MCAUSE_INTERRUPT_BIT) {
 588:	7f78                	.insn	2, 0x7f78
 58a:	049f 0180 01c4      	.insn	6, 0x01c40180049f
        uint32_t code = mcause & MCAUSE_CODE_MASK;
 590:	5801                	.insn	2, 0x5801
 592:	c404                	.insn	2, 0xc404
        switch (code) {
 594:	c801                	.insn	2, 0xc801
 596:	0301                	.insn	2, 0x0301
 598:	0178                	.insn	2, 0x0178
 59a:	049f 01c8 03ec      	.insn	6, 0x03ec01c8049f
{
 5a0:	5801                	.insn	2, 0x5801
 5a2:	0800                	.insn	2, 0x0800
 5a4:	093c                	.insn	2, 0x093c
 5a6:	0000                	.insn	2, 0x
        switch (code) {
 5a8:	005a0103          	lb	sp,5(s4)
 5ac:	4408                	.insn	2, 0x4408
 5ae:	0008                	.insn	2, 0x0008
 5b0:	0800                	.insn	2, 0x0800
 5b2:	9f250803          	lb	a6,-1550(a0)
 5b6:	0800                	.insn	2, 0x0800
            default_banner(f, "unknown interrupt cause");
 5b8:	0844                	.insn	2, 0x0844
 5ba:	0000                	.insn	2, 0x
 5bc:	0508                	.insn	2, 0x0508
 5be:	8608                	.insn	2, 0x8608
 5c0:	009f2447          	.insn	4, 0x009f2447
            (timer_handler ? timer_handler : default_timer)(f);
 5c4:	a408                	.insn	2, 0xa408
 5c6:	0008                	.insn	2, 0x0008
 5c8:	0c00                	.insn	2, 0x0c00
 5ca:	9f250803          	lb	a6,-1550(a0)
 5ce:	0800                	.insn	2, 0x0800
        (h ? h : default_exception)(f);
 5d0:	08a4                	.insn	2, 0x08a4
 5d2:	0000                	.insn	2, 0x
 5d4:	050c                	.insn	2, 0x050c
 5d6:	8608                	.insn	2, 0x8608
            (soft_handler ? soft_handler : default_soft)(f);
 5d8:	009f2447          	.insn	4, 0x009f2447
 5dc:	b008                	.insn	2, 0xb008
 5de:	0008                	.insn	2, 0x0008
 5e0:	0800                	.insn	2, 0x0800
 5e2:	7802                	.insn	2, 0x7802
}
 5e4:	0000                	.insn	2, 0x
 5e6:	7408                	.insn	2, 0x7408
 5e8:	0009                	.insn	2, 0x0009
 5ea:	0400                	.insn	2, 0x0400
            (soft_handler ? soft_handler : default_soft)(f);
 5ec:	5e01                	.insn	2, 0x5e01
 5ee:	0800                	.insn	2, 0x0800
}
 5f0:	0974                	.insn	2, 0x0974
 5f2:	0000                	.insn	2, 0x
        (h ? h : default_exception)(f);
 5f4:	0504                	.insn	2, 0x0504
 5f6:	8608                	.insn	2, 0x8608
    return *(volatile uint32_t *)addr;
 5f8:	009f2447          	.insn	4, 0x009f2447
 5fc:	dc06                	.insn	2, 0xdc06
 5fe:	0008                	.insn	2, 0x0008
 600:	0400                	.insn	2, 0x0400
 602:	2400                	.insn	2, 0x2400
            if (irq) {
 604:	5e01                	.insn	2, 0x5e01
 606:	a004                	.insn	2, 0xa004
                if (irq < IRQ_HANDLER_SLOTS && irq_handlers[irq])
 608:	ac01                	.insn	2, 0xac01
 60a:	0101                	.insn	2, 0x0101
 60c:	005e                	.insn	2, 0x005e
 60e:	dc06                	.insn	2, 0xdc06
 610:	0008                	.insn	2, 0x0008
 612:	0400                	.insn	2, 0x0400
 614:	2400                	.insn	2, 0x2400
 616:	5d01                	.insn	2, 0x5d01
 618:	a004                	.insn	2, 0xa004
 61a:	ac01                	.insn	2, 0xac01
 61c:	0101                	.insn	2, 0x0101
 61e:	005d                	.insn	2, 0x005d
 620:	e808                	.insn	2, 0xe808
 622:	0008                	.insn	2, 0x0008
                    irq_handlers[irq](irq);
 624:	0c00                	.insn	2, 0x0c00
 626:	9f2d0803          	lb	a6,-1550(s10) # a588 <__stack_size+0x2588>
 62a:	0800                	.insn	2, 0x0800
 62c:	08e8                	.insn	2, 0x08e8
 62e:	0000                	.insn	2, 0x
    *(volatile uint32_t *)addr = v;
 630:	050c                	.insn	2, 0x050c
 632:	8608                	.insn	2, 0x8608
 634:	009f2447          	.insn	4, 0x009f2447
}
 638:	7008                	.insn	2, 0x7008
 63a:	0009                	.insn	2, 0x0009
 63c:	0400                	.insn	2, 0x0400
 63e:	5e01                	.insn	2, 0x5e01
 640:	0800                	.insn	2, 0x0800
 642:	0970                	.insn	2, 0x0970
 644:	0000                	.insn	2, 0x
 646:	0504                	.insn	2, 0x0504
    uart_printf("\n[bsp] UNHANDLED PLIC IRQ %u\n", irq);
 648:	8608                	.insn	2, 0x8608
 64a:	009f2447          	.insn	4, 0x009f2447
 64e:	d006                	.insn	2, 0xd006
 650:	0006                	.insn	2, 0x0006
 652:	0400                	.insn	2, 0x0400
    for (;;) {}
 654:	8400                	.insn	2, 0x8400
 656:	0101                	.insn	2, 0x0101
            (code < EXC_HANDLER_SLOTS) ? exc_handlers[code] : NULL;
 658:	045a                	.insn	2, 0x045a
 65a:	0184                	.insn	2, 0x0184
 65c:	01bc                	.insn	2, 0x01bc
 65e:	5a01                	.insn	2, 0x5a01
 660:	0600                	.insn	2, 0x0600
 662:	06d0                	.insn	2, 0x06d0
 664:	0000                	.insn	2, 0x
 666:	0004                	.insn	2, 0x0004
 668:	0124                	.insn	2, 0x0124
 66a:	5024045b          	.insn	4, 0x5024045b
 66e:	a30a                	.insn	2, 0xa30a
 670:	260ba503          	lw	a0,608(s7)
        (h ? h : default_exception)(f);
 674:	2da8                	.insn	2, 0x2da8
 676:	00a8                	.insn	2, 0x00a8
 678:	049f 9450 0101      	.insn	6, 0x01019450049f
 67e:	0194045b          	.insn	4, 0x0194045b
    csr_write(mtvec, (uint32_t)(uintptr_t)bsp_trap_entry);
 682:	01bc                	.insn	2, 0x01bc
 684:	a30a                	.insn	2, 0xa30a
 686:	260ba503          	lw	a0,608(s7)
    csr_write(mstatus, MSTATUS_MPP);
 68a:	2da8                	.insn	2, 0x2da8
 68c:	00a8                	.insn	2, 0x00a8
 68e:	009f d006 0006      	.insn	6, 0x0006d006009f
    csr_write(mie, 0);
 694:	0400                	.insn	2, 0x0400
 696:	0c00                	.insn	2, 0x0c00
 698:	5c01                	.insn	2, 0x5c01
 69a:	0c04                	.insn	2, 0x0c04
    return *(volatile uint32_t *)addr;
 69c:	0a50                	.insn	2, 0x0a50
 69e:	0ca503a3          	sb	a0,199(a0)
 6a2:	a826                	.insn	2, 0xa826
 6a4:	a82d                	.insn	2, 0xa82d
 6a6:	9f00                	.insn	2, 0x9f00
    if (irq) plic_complete(irq);
 6a8:	5004                	.insn	2, 0x5004
 6aa:	0154                	.insn	2, 0x0154
    *(volatile uint32_t *)addr = v;
 6ac:	045c                	.insn	2, 0x045c
 6ae:	bc54                	.insn	2, 0xbc54
 6b0:	0a01                	.insn	2, 0x0a01
 6b2:	0ca503a3          	sb	a0,199(a0)
 6b6:	a826                	.insn	2, 0xa826
 6b8:	a82d                	.insn	2, 0xa82d
 6ba:	9f00                	.insn	2, 0x9f00
 6bc:	0600                	.insn	2, 0x0600
 6be:	06d0                	.insn	2, 0x06d0
 6c0:	0000                	.insn	2, 0x
 6c2:	0004                	.insn	2, 0x0004
 6c4:	013c                	.insn	2, 0x013c
 6c6:	045d                	.insn	2, 0x045d
 6c8:	503c                	.insn	2, 0x503c
 6ca:	a30a                	.insn	2, 0xa30a
}
 6cc:	260da503          	lw	a0,608(s11)
{
 6d0:	2da8                	.insn	2, 0x2da8
 6d2:	00a8                	.insn	2, 0x00a8
    const char *digits = upper_case ? digits_upper : digits_lower;
 6d4:	049f a850 0101      	.insn	6, 0x0101a850049f
 6da:	045d                	.insn	2, 0x045d
 6dc:	01a8                	.insn	2, 0x01a8
 6de:	01bc                	.insn	2, 0x01bc
    if (val == 0) {
 6e0:	a30a                	.insn	2, 0xa30a
 6e2:	260da503          	lw	a0,608(s11)
        buf[i++] = '0';
 6e6:	2da8                	.insn	2, 0x2da8
 6e8:	00a8                	.insn	2, 0x00a8
 6ea:	009f d006 0006      	.insn	6, 0x0006d006009f
    int i = 0;
 6f0:	0400                	.insn	2, 0x0400
 6f2:	2c00                	.insn	2, 0x2c00
    for (; i < pad_width; i++) {
 6f4:	5e01                	.insn	2, 0x5e01
 6f6:	2c04                	.insn	2, 0x2c04
 6f8:	0a50                	.insn	2, 0x0a50
 6fa:	0ea503a3          	sb	a0,231(a0)
 6fe:	a826                	.insn	2, 0xa826
 700:	a834                	.insn	2, 0xa834
 702:	9f00                	.insn	2, 0x9f00
 704:	5004                	.insn	2, 0x5004
 706:	01a8                	.insn	2, 0x01a8
 708:	5e01                	.insn	2, 0x5e01
 70a:	a804                	.insn	2, 0xa804
    while (i-- > 0) {
 70c:	bc01                	.insn	2, 0xbc01
 70e:	0a01                	.insn	2, 0x0a01
 710:	0ea503a3          	sb	a0,231(a0)
 714:	a826                	.insn	2, 0xa826
 716:	a834                	.insn	2, 0xa834
}
 718:	9f00                	.insn	2, 0x9f00
 71a:	0600                	.insn	2, 0x0600
 71c:	06e0                	.insn	2, 0x06e0
 71e:	0000                	.insn	2, 0x
    const char *digits = upper_case ? digits_upper : digits_lower;
 720:	0004                	.insn	2, 0x0004
 722:	0114                	.insn	2, 0x0114
 724:	045c                	.insn	2, 0x045c
 726:	844c                	.insn	2, 0x844c
 728:	0101                	.insn	2, 0x0101
 72a:	005c                	.insn	2, 0x005c
 72c:	e006                	.insn	2, 0xe006
 72e:	0006                	.insn	2, 0x0006
    int i = 0;
 730:	0400                	.insn	2, 0x0400
 732:	0400                	.insn	2, 0x0400
        while (val != 0 && i < 32) {
 734:	3002                	.insn	2, 0x3002
 736:	049f 1004 3102      	.insn	6, 0x31021004049f
            buf[i++] = digits[val % base];
 73c:	049f 3014 5c01      	.insn	6, 0x5c013014049f
 742:	3004                	.insn	2, 0x3004
 744:	0140                	.insn	2, 0x0140
 746:	045f 584c 3002      	.insn	6, 0x3002584c045f
            val /= base;
 74c:	049f 8458 0101      	.insn	6, 0x01018458049f
 752:	045f 0184 0198      	.insn	6, 0x01980184045f
        while (val != 0 && i < 32) {
 758:	5c01                	.insn	2, 0x5c01
 75a:	9804                	.insn	2, 0x9804
 75c:	ac01                	.insn	2, 0xac01
 75e:	0101                	.insn	2, 0x0101
 760:	005f 7808 0007      	.insn	6, 0x00077808005f
        buf[i] = pad_char;
 766:	1000                	.insn	2, 0x1000
 768:	9108                	.insn	2, 0x9108
 76a:	7f00                	.insn	2, 0x7f00
 76c:	2200                	.insn	2, 0x2200
 76e:	2408                	.insn	2, 0x2408
    for (; i < pad_width; i++) {
 770:	001c                	.insn	2, 0x001c
 772:	8408                	.insn	2, 0x8408
 774:	04000007          	.insn	4, 0x04000007
        uart_putc(buf[i]);
 778:	5c01                	.insn	2, 0x5c01
 77a:	0800                	.insn	2, 0x0800
 77c:	0784                	.insn	2, 0x0784
 77e:	0000                	.insn	2, 0x
    mmio_write32(UART_DATA_REG, (uint8_t)c);
 780:	0504                	.insn	2, 0x0504
 782:	8608                	.insn	2, 0x8608
 784:	009f2447          	.insn	4, 0x009f2447
}
 788:	0008                	.insn	2, 0x0008
 78a:	0000                	.insn	2, 0x
 78c:	0800                	.insn	2, 0x0800
 78e:	0805                	.insn	2, 0x0805
    while (*s) {
 790:	4786                	.insn	2, 0x4786
 792:	9f24                	.insn	2, 0x9f24
 794:	0600                	.insn	2, 0x0600
 796:	078c                	.insn	2, 0x078c
}
 798:	0000                	.insn	2, 0x
 79a:	0004                	.insn	2, 0x0004
        uart_putc(*s++);
 79c:	0114                	.insn	2, 0x0114
 79e:	045a                	.insn	2, 0x045a
 7a0:	1c14                	.insn	2, 0x1c14
 7a2:	5a01                	.insn	2, 0x5a01
}
 7a4:	0800                	.insn	2, 0x0800
 7a6:	07a0                	.insn	2, 0x07a0
{
 7a8:	0000                	.insn	2, 0x
 7aa:	0104                	.insn	2, 0x0104
 7ac:	005f a008 0007      	.insn	6, 0x0007a008005f
    va_start(ap, fmt);
 7b2:	0400                	.insn	2, 0x0400
{
 7b4:	0805                	.insn	2, 0x0805
 7b6:	4786                	.insn	2, 0x4786
 7b8:	9f24                	.insn	2, 0x9f24
 7ba:	0800                	.insn	2, 0x0800
 7bc:	0000                	.insn	2, 0x
 7be:	0000                	.insn	2, 0x
 7c0:	0a08                	.insn	2, 0x0a08
 7c2:	0aa503a3          	sb	a0,167(a0)
 7c6:	a826                	.insn	2, 0xa826
 7c8:	a82d                	.insn	2, 0xa82d
 7ca:	9f00                	.insn	2, 0x9f00
 7cc:	0800                	.insn	2, 0x0800
 7ce:	0000                	.insn	2, 0x
 7d0:	0000                	.insn	2, 0x
 7d2:	0508                	.insn	2, 0x0508
 7d4:	8608                	.insn	2, 0x8608
 7d6:	009f2447          	.insn	4, 0x009f2447

Disassembly of section .debug_aranges:

00000000 <.debug_aranges>:
    la      gp, __global_pointer$
   0:	003c                	.insn	2, 0x003c
   2:	0000                	.insn	2, 0x
   4:	0002                	.insn	2, 0x0002
   6:	0000                	.insn	2, 0x
    la      sp, __stack_top
   8:	0000                	.insn	2, 0x
   a:	0004                	.insn	2, 0x0004
   c:	0000                	.insn	2, 0x
   e:	0000                	.insn	2, 0x
    la      a0, _data_lma
  10:	01b0                	.insn	2, 0x01b0
  12:	0000                	.insn	2, 0x
  14:	005c                	.insn	2, 0x005c
  16:	0000                	.insn	2, 0x
    la      a1, _data
  18:	020c                	.insn	2, 0x020c
  1a:	0000                	.insn	2, 0x
  1c:	0058                	.insn	2, 0x0058
  1e:	0000                	.insn	2, 0x
    la      a2, _edata
  20:	0264                	.insn	2, 0x0264
  22:	0000                	.insn	2, 0x
  24:	0050                	.insn	2, 0x0050
  26:	0000                	.insn	2, 0x
    bgeu    a1, a2, 2f
  28:	02b4                	.insn	2, 0x02b4
  2a:	0000                	.insn	2, 0x
    lw      t0, 0(a0)
  2c:	0014                	.insn	2, 0x0014
  2e:	0000                	.insn	2, 0x
    sw      t0, 0(a1)
  30:	02c8                	.insn	2, 0x02c8
  32:	0000                	.insn	2, 0x
    addi    a0, a0, 4
  34:	00ac                	.insn	2, 0x00ac
	...
    bltu    a1, a2, 1b
  3e:	0000                	.insn	2, 0x
    la      a0, _fbss
  40:	002c                	.insn	2, 0x002c
  42:	0000                	.insn	2, 0x
  44:	0002                	.insn	2, 0x0002
  46:	05b1                	.insn	2, 0x05b1
    la      a1, _end
  48:	0000                	.insn	2, 0x
  4a:	0004                	.insn	2, 0x0004
  4c:	0000                	.insn	2, 0x
  4e:	0000                	.insn	2, 0x
    bgeu    a0, a1, 2f
  50:	0374                	.insn	2, 0x0374
  52:	0000                	.insn	2, 0x
    sw      zero, 0(a0)
  54:	0014                	.insn	2, 0x0014
  56:	0000                	.insn	2, 0x
    addi    a0, a0, 4
  58:	0388                	.insn	2, 0x0388
  5a:	0000                	.insn	2, 0x
    bltu    a0, a1, 1b
  5c:	0070                	.insn	2, 0x0070
  5e:	0000                	.insn	2, 0x
    call    main
  60:	03f8                	.insn	2, 0x03f8
  62:	0000                	.insn	2, 0x
    j       .L_halt
  64:	0044                	.insn	2, 0x0044
	...
  6e:	0000                	.insn	2, 0x
    addi    sp, sp, -FRAME_SIZE
  70:	001c                	.insn	2, 0x001c
  72:	0000                	.insn	2, 0x
    sw      x1,  OFF_X(1)(sp)
  74:	0002                	.insn	2, 0x0002
  76:	081e                	.insn	2, 0x081e
    sw      x2,  OFF_X(2)(sp)            /* original sp is sp+FRAME_SIZE */
  78:	0000                	.insn	2, 0x
  7a:	0004                	.insn	2, 0x0004
    sw      x3,  OFF_X(3)(sp)
  7c:	0000                	.insn	2, 0x
  7e:	0000                	.insn	2, 0x
    sw      x4,  OFF_X(4)(sp)
  80:	043c                	.insn	2, 0x043c
  82:	0000                	.insn	2, 0x
    sw      x5,  OFF_X(5)(sp)
  84:	0074                	.insn	2, 0x0074
	...
    sw      x7,  OFF_X(7)(sp)
  8e:	0000                	.insn	2, 0x
    sw      x8,  OFF_X(8)(sp)
  90:	008c                	.insn	2, 0x008c
  92:	0000                	.insn	2, 0x
    sw      x9,  OFF_X(9)(sp)
  94:	0002                	.insn	2, 0x0002
  96:	0000084f          	.insn	4, 0x084f
    sw      x10, OFF_X(10)(sp)
  9a:	0004                	.insn	2, 0x0004
    sw      x11, OFF_X(11)(sp)
  9c:	0000                	.insn	2, 0x
  9e:	0000                	.insn	2, 0x
    sw      x12, OFF_X(12)(sp)
  a0:	04b0                	.insn	2, 0x04b0
  a2:	0000                	.insn	2, 0x
    sw      x13, OFF_X(13)(sp)
  a4:	004c                	.insn	2, 0x004c
  a6:	0000                	.insn	2, 0x
    sw      x14, OFF_X(14)(sp)
  a8:	04fc                	.insn	2, 0x04fc
  aa:	0000                	.insn	2, 0x
    sw      x15, OFF_X(15)(sp)
  ac:	0014                	.insn	2, 0x0014
  ae:	0000                	.insn	2, 0x
    sw      x16, OFF_X(16)(sp)
  b0:	0510                	.insn	2, 0x0510
  b2:	0000                	.insn	2, 0x
    sw      x17, OFF_X(17)(sp)
  b4:	001c                	.insn	2, 0x001c
  b6:	0000                	.insn	2, 0x
    sw      x18, OFF_X(18)(sp)
  b8:	052c                	.insn	2, 0x052c
  ba:	0000                	.insn	2, 0x
    sw      x19, OFF_X(19)(sp)
  bc:	0028                	.insn	2, 0x0028
  be:	0000                	.insn	2, 0x
    sw      x20, OFF_X(20)(sp)
  c0:	0554                	.insn	2, 0x0554
  c2:	0000                	.insn	2, 0x
    sw      x21, OFF_X(21)(sp)
  c4:	0008                	.insn	2, 0x0008
	...
    sw      x27, OFF_X(27)(sp)
  de:	0000                	.insn	2, 0x
    sw      x28, OFF_X(28)(sp)
  e0:	055c                	.insn	2, 0x055c
  e2:	0000                	.insn	2, 0x
    sw      x29, OFF_X(29)(sp)
  e4:	000c                	.insn	2, 0x000c
  e6:	0000                	.insn	2, 0x
    sw      x30, OFF_X(30)(sp)
  e8:	0568                	.insn	2, 0x0568
  ea:	0000                	.insn	2, 0x
    sw      x31, OFF_X(31)(sp)
  ec:	000c                	.insn	2, 0x000c
  ee:	0000                	.insn	2, 0x
    addi    t0, sp, FRAME_SIZE
  f0:	0574                	.insn	2, 0x0574
  f2:	0000                	.insn	2, 0x
    sw      t0, OFF_X(2)(sp)
  f4:	000c                	.insn	2, 0x000c
	...
    sw      t0, OFF_MCAUSE(sp)
 106:	0000                	.insn	2, 0x
    csrr    t0, mtval
 108:	0580                	.insn	2, 0x0580
 10a:	0000                	.insn	2, 0x
    sw      t0, OFF_MTVAL(sp)
 10c:	0100                	.insn	2, 0x0100
 10e:	0000                	.insn	2, 0x
    csrr    t0, mstatus
 110:	0680                	.insn	2, 0x0680
 112:	0000                	.insn	2, 0x
    sw      t0, OFF_MSTATUS(sp)
 114:	0050                	.insn	2, 0x0050
	...
    call    bsp_trap_dispatch
 11e:	0000                	.insn	2, 0x
    lw      t0, OFF_MEPC(sp)
 120:	003c                	.insn	2, 0x003c
 122:	0000                	.insn	2, 0x
    csrw    mepc, t0
 124:	0002                	.insn	2, 0x0002
 126:	10b4                	.insn	2, 0x10b4
    lw      t0, OFF_MSTATUS(sp)
 128:	0000                	.insn	2, 0x
 12a:	0004                	.insn	2, 0x0004
    csrw    mstatus, t0
 12c:	0000                	.insn	2, 0x
 12e:	0000                	.insn	2, 0x
    lw      x1,  OFF_X(1)(sp)
 130:	06d0                	.insn	2, 0x06d0
 132:	0000                	.insn	2, 0x
    lw      x3,  OFF_X(3)(sp)
 134:	00bc                	.insn	2, 0x00bc
	...
    lw      x5,  OFF_X(5)(sp)
 13e:	0000                	.insn	2, 0x
    lw      x6,  OFF_X(6)(sp)
 140:	078c                	.insn	2, 0x078c
 142:	0000                	.insn	2, 0x
    lw      x7,  OFF_X(7)(sp)
 144:	001c                	.insn	2, 0x001c
	...
    lw      x9,  OFF_X(9)(sp)
 14e:	0000                	.insn	2, 0x
    lw      x10, OFF_X(10)(sp)
 150:	07a8                	.insn	2, 0x07a8
 152:	0000                	.insn	2, 0x
    lw      x11, OFF_X(11)(sp)
 154:	0238                	.insn	2, 0x0238
	...
    lw      x13, OFF_X(13)(sp)
 15e:	0000                	.insn	2, 0x
    lw      x14, OFF_X(14)(sp)
 160:	001c                	.insn	2, 0x001c
 162:	0000                	.insn	2, 0x
    lw      x15, OFF_X(15)(sp)
 164:	0002                	.insn	2, 0x0002
 166:	00001603          	lh	a2,0(zero) # 0 <_start>
    lw      x16, OFF_X(16)(sp)
 16a:	0004                	.insn	2, 0x0004
	...
    lw      x19, OFF_X(19)(sp)
 174:	0068                	.insn	2, 0x0068
	...
    lw      x21, OFF_X(21)(sp)
 17e:	0000                	.insn	2, 0x
    lw      x22, OFF_X(22)(sp)
 180:	001c                	.insn	2, 0x001c
 182:	0000                	.insn	2, 0x
    lw      x23, OFF_X(23)(sp)
 184:	0002                	.insn	2, 0x0002
 186:	1634                	.insn	2, 0x1634
    lw      x24, OFF_X(24)(sp)
 188:	0000                	.insn	2, 0x
 18a:	0004                	.insn	2, 0x0004
    lw      x25, OFF_X(25)(sp)
 18c:	0000                	.insn	2, 0x
 18e:	0000                	.insn	2, 0x
    lw      x26, OFF_X(26)(sp)
 190:	0070                	.insn	2, 0x0070
 192:	0000                	.insn	2, 0x
    lw      x27, OFF_X(27)(sp)
 194:	0140                	.insn	2, 0x0140
	...

Disassembly of section .debug_rnglists:

00000000 <.debug_rnglists>:
    la      gp, __global_pointer$
   0:	005e                	.insn	2, 0x005e
   2:	0000                	.insn	2, 0x
   4:	0005                	.insn	2, 0x0005
   6:	0004                	.insn	2, 0x0004
    la      sp, __stack_top
   8:	0000                	.insn	2, 0x
   a:	0000                	.insn	2, 0x
   c:	b005                	.insn	2, 0xb005
   e:	0001                	.insn	2, 0x0001
    la      a0, _data_lma
  10:	0400                	.insn	2, 0x0400
  12:	0000                	.insn	2, 0x
  14:	1804                	.insn	2, 0x1804
  16:	0044                	.insn	2, 0x0044
    la      a1, _data
  18:	0c05                	.insn	2, 0x0c05
  1a:	0002                	.insn	2, 0x0002
  1c:	0400                	.insn	2, 0x0400
  1e:	0000                	.insn	2, 0x
    la      a2, _edata
  20:	1804                	.insn	2, 0x1804
  22:	0044                	.insn	2, 0x0044
  24:	6405                	.insn	2, 0x6405
  26:	0002                	.insn	2, 0x0002
    bgeu    a1, a2, 2f
  28:	0400                	.insn	2, 0x0400
  2a:	0400                	.insn	2, 0x0400
    lw      t0, 0(a0)
  2c:	0804                	.insn	2, 0x0804
  2e:	040c                	.insn	2, 0x040c
    sw      t0, 0(a1)
  30:	1410                	.insn	2, 0x1410
  32:	0500                	.insn	2, 0x0500
    addi    a0, a0, 4
  34:	0268                	.insn	2, 0x0268
  36:	0000                	.insn	2, 0x
    addi    a1, a1, 4
  38:	0004                	.insn	2, 0x0004
  3a:	0404                	.insn	2, 0x0404
    bltu    a1, a2, 1b
  3c:	0c08                	.insn	2, 0x0c08
  3e:	1004                	.insn	2, 0x1004
    la      a0, _fbss
  40:	0014                	.insn	2, 0x0014
  42:	0001b007          	.insn	4, 0x0001b007
  46:	5c00                	.insn	2, 0x5c00
    la      a1, _end
  48:	00020c07          	.insn	4, 0x00020c07
  4c:	5800                	.insn	2, 0x5800
  4e:	00026407          	.insn	4, 0x00026407
    bgeu    a0, a1, 2f
  52:	5000                	.insn	2, 0x5000
    sw      zero, 0(a0)
  54:	0002b407          	.insn	4, 0x0002b407
    addi    a0, a0, 4
  58:	1400                	.insn	2, 0x1400
  5a:	0002c807          	.insn	4, 0x0002c807
    bltu    a0, a1, 1b
  5e:	ac00                	.insn	2, 0xac00
    call    main
  60:	0001                	.insn	2, 0x0001
  62:	00000027          	.insn	4, 0x0027
    j       .L_halt
  66:	0005                	.insn	2, 0x0005
  68:	0004                	.insn	2, 0x0004
  6a:	0000                	.insn	2, 0x
  6c:	0000                	.insn	2, 0x
  6e:	a005                	.insn	2, 0xa005
    addi    sp, sp, -FRAME_SIZE
  70:	04000003          	lb	zero,64(zero) # 40 <_start+0x40>
    sw      x1,  OFF_X(1)(sp)
  74:	0000                	.insn	2, 0x
  76:	1c04                	.insn	2, 0x1c04
    sw      x2,  OFF_X(2)(sp)            /* original sp is sp+FRAME_SIZE */
  78:	0028                	.insn	2, 0x0028
  7a:	00037407          	.insn	4, 0x00037407
    sw      x3,  OFF_X(3)(sp)
  7e:	1400                	.insn	2, 0x1400
    sw      x4,  OFF_X(4)(sp)
  80:	00038807          	.insn	4, 0x00038807
    sw      x5,  OFF_X(5)(sp)
  84:	7000                	.insn	2, 0x7000
  86:	0003f807          	.insn	4, 0x0003f807
    sw      x6,  OFF_X(6)(sp)
  8a:	4400                	.insn	2, 0x4400
    sw      x7,  OFF_X(7)(sp)
  8c:	b900                	.insn	2, 0xb900
  8e:	0000                	.insn	2, 0x
    sw      x8,  OFF_X(8)(sp)
  90:	0500                	.insn	2, 0x0500
  92:	0400                	.insn	2, 0x0400
    sw      x9,  OFF_X(9)(sp)
  94:	0000                	.insn	2, 0x
  96:	0000                	.insn	2, 0x
    sw      x10, OFF_X(10)(sp)
  98:	0500                	.insn	2, 0x0500
  9a:	0510                	.insn	2, 0x0510
    sw      x11, OFF_X(11)(sp)
  9c:	0000                	.insn	2, 0x
  9e:	0004                	.insn	2, 0x0004
    sw      x12, OFF_X(12)(sp)
  a0:	0400                	.insn	2, 0x0400
  a2:	0c08                	.insn	2, 0x0c08
    sw      x13, OFF_X(13)(sp)
  a4:	1004                	.insn	2, 0x1004
  a6:	0014                	.insn	2, 0x0014
    sw      x14, OFF_X(14)(sp)
  a8:	2c05                	.insn	2, 0x2c05
  aa:	0005                	.insn	2, 0x0005
    sw      x15, OFF_X(15)(sp)
  ac:	0400                	.insn	2, 0x0400
  ae:	0000                	.insn	2, 0x
    sw      x16, OFF_X(16)(sp)
  b0:	0804                	.insn	2, 0x0804
  b2:	0014                	.insn	2, 0x0014
    sw      x17, OFF_X(17)(sp)
  b4:	4005                	.insn	2, 0x4005
  b6:	0005                	.insn	2, 0x0005
    sw      x18, OFF_X(18)(sp)
  b8:	0400                	.insn	2, 0x0400
  ba:	0000                	.insn	2, 0x
    sw      x19, OFF_X(19)(sp)
  bc:	0404                	.insn	2, 0x0404
  be:	000c                	.insn	2, 0x000c
    sw      x20, OFF_X(20)(sp)
  c0:	8c05                	.insn	2, 0x8c05
  c2:	0005                	.insn	2, 0x0005
    sw      x21, OFF_X(21)(sp)
  c4:	0400                	.insn	2, 0x0400
  c6:	1000                	.insn	2, 0x1000
    sw      x22, OFF_X(22)(sp)
  c8:	1c04                	.insn	2, 0x1c04
  ca:	0444                	.insn	2, 0x0444
    sw      x23, OFF_X(23)(sp)
  cc:	584c                	.insn	2, 0x584c
  ce:	6004                	.insn	2, 0x6004
    sw      x24, OFF_X(24)(sp)
  d0:	0564                	.insn	2, 0x0564
  d2:	05f8                	.insn	2, 0x05f8
    sw      x25, OFF_X(25)(sp)
  d4:	0000                	.insn	2, 0x
  d6:	0004                	.insn	2, 0x0004
    sw      x26, OFF_X(26)(sp)
  d8:	0440                	.insn	2, 0x0440
  da:	6050                	.insn	2, 0x6050
    sw      x27, OFF_X(27)(sp)
  dc:	0500                	.insn	2, 0x0500
  de:	05d0                	.insn	2, 0x05d0
    sw      x28, OFF_X(28)(sp)
  e0:	0000                	.insn	2, 0x
  e2:	0004                	.insn	2, 0x0004
    sw      x29, OFF_X(29)(sp)
  e4:	0408                	.insn	2, 0x0408
  e6:	2824                	.insn	2, 0x2824
    sw      x30, OFF_X(30)(sp)
  e8:	8804                	.insn	2, 0x8804
  ea:	b001                	.insn	2, 0xb001
    sw      x31, OFF_X(31)(sp)
  ec:	0001                	.insn	2, 0x0001
  ee:	0004b007          	.insn	4, 0x0004b007
    addi    t0, sp, FRAME_SIZE
  f2:	4c00                	.insn	2, 0x4c00
    sw      t0, OFF_X(2)(sp)
  f4:	0004fc07          	.insn	4, 0x0004fc07
    csrr    t0, mepc
  f8:	1400                	.insn	2, 0x1400
  fa:	00051007          	.insn	4, 0x00051007
    sw      t0, OFF_MEPC(sp)
  fe:	1c00                	.insn	2, 0x1c00
    csrr    t0, mcause
 100:	00052c07          	.insn	4, 0x00052c07
    sw      t0, OFF_MCAUSE(sp)
 104:	2800                	.insn	2, 0x2800
 106:	00055407          	.insn	4, 0x00055407
    csrr    t0, mtval
 10a:	0800                	.insn	2, 0x0800
    sw      t0, OFF_MTVAL(sp)
 10c:	00000007          	.insn	4, 0x0007
    csrr    t0, mstatus
 110:	0c00                	.insn	2, 0x0c00
 112:	00000007          	.insn	4, 0x0007
    sw      t0, OFF_MSTATUS(sp)
 116:	2000                	.insn	2, 0x2000
    mv      a0, sp
 118:	00000007          	.insn	4, 0x0007
    call    bsp_trap_dispatch
 11c:	2000                	.insn	2, 0x2000
 11e:	00055c07          	.insn	4, 0x00055c07
    lw      t0, OFF_MEPC(sp)
 122:	0c00                	.insn	2, 0x0c00
    csrw    mepc, t0
 124:	00056807          	.insn	4, 0x00056807
    lw      t0, OFF_MSTATUS(sp)
 128:	0c00                	.insn	2, 0x0c00
 12a:	00057407          	.insn	4, 0x00057407
    csrw    mstatus, t0
 12e:	0c00                	.insn	2, 0x0c00
    lw      x1,  OFF_X(1)(sp)
 130:	00000007          	.insn	4, 0x0007
    lw      x3,  OFF_X(3)(sp)
 134:	1000                	.insn	2, 0x1000
 136:	00000007          	.insn	4, 0x0007
    lw      x4,  OFF_X(4)(sp)
 13a:	0c00                	.insn	2, 0x0c00
    lw      x5,  OFF_X(5)(sp)
 13c:	00058007          	.insn	4, 0x00058007
    lw      x6,  OFF_X(6)(sp)
 140:	8000                	.insn	2, 0x8000
 142:	0702                	.insn	2, 0x0702
    lw      x7,  OFF_X(7)(sp)
 144:	0680                	.insn	2, 0x0680
 146:	0000                	.insn	2, 0x
    lw      x8,  OFF_X(8)(sp)
 148:	0050                	.insn	2, 0x0050
 14a:	0000008f          	.insn	4, 0x008f
    lw      x9,  OFF_X(9)(sp)
 14e:	0005                	.insn	2, 0x0005
    lw      x10, OFF_X(10)(sp)
 150:	0004                	.insn	2, 0x0004
 152:	0000                	.insn	2, 0x
    lw      x11, OFF_X(11)(sp)
 154:	0000                	.insn	2, 0x
 156:	0805                	.insn	2, 0x0805
    lw      x12, OFF_X(12)(sp)
 158:	04000007          	.insn	4, 0x04000007
    lw      x13, OFF_X(13)(sp)
 15c:	0400                	.insn	2, 0x0400
 15e:	7004                	.insn	2, 0x7004
    lw      x14, OFF_X(14)(sp)
 160:	0470                	.insn	2, 0x0470
 162:	8478                	.insn	2, 0x8478
    lw      x15, OFF_X(15)(sp)
 164:	0001                	.insn	2, 0x0001
 166:	0805                	.insn	2, 0x0805
    lw      x16, OFF_X(16)(sp)
 168:	04000007          	.insn	4, 0x04000007
    lw      x17, OFF_X(17)(sp)
 16c:	0400                	.insn	2, 0x0400
 16e:	7c04                	.insn	2, 0x7c04
    lw      x18, OFF_X(18)(sp)
 170:	0180                	.insn	2, 0x0180
 172:	0500                	.insn	2, 0x0500
    lw      x19, OFF_X(19)(sp)
 174:	078c                	.insn	2, 0x078c
 176:	0000                	.insn	2, 0x
    lw      x20, OFF_X(20)(sp)
 178:	0004                	.insn	2, 0x0004
 17a:	0404                	.insn	2, 0x0404
    lw      x21, OFF_X(21)(sp)
 17c:	1c14                	.insn	2, 0x1c14
 17e:	0500                	.insn	2, 0x0500
    lw      x22, OFF_X(22)(sp)
 180:	078c                	.insn	2, 0x078c
 182:	0000                	.insn	2, 0x
    lw      x23, OFF_X(23)(sp)
 184:	0004                	.insn	2, 0x0004
 186:	0404                	.insn	2, 0x0404
    lw      x24, OFF_X(24)(sp)
 188:	1814                	.insn	2, 0x1814
 18a:	0500                	.insn	2, 0x0500
    lw      x25, OFF_X(25)(sp)
 18c:	07f4                	.insn	2, 0x07f4
 18e:	0000                	.insn	2, 0x
    lw      x26, OFF_X(26)(sp)
 190:	0004                	.insn	2, 0x0004
 192:	0420                	.insn	2, 0x0420
    lw      x27, OFF_X(27)(sp)
 194:	ec4c                	.insn	2, 0xec4c
 196:	b0050003          	lb	zero,-1280(a0)
    lw      x28, OFF_X(28)(sp)
 19a:	0008                	.insn	2, 0x0008
    lw      x29, OFF_X(29)(sp)
 19c:	0400                	.insn	2, 0x0400
 19e:	0800                	.insn	2, 0x0800
    lw      x30, OFF_X(30)(sp)
 1a0:	c404                	.insn	2, 0xc404
 1a2:	c801                	.insn	2, 0xc801
    lw      x31, OFF_X(31)(sp)
 1a4:	0401                	.insn	2, 0x0401
 1a6:	01c8                	.insn	2, 0x01c8
    addi    sp, sp, FRAME_SIZE
 1a8:	01cc                	.insn	2, 0x01cc
 1aa:	0500                	.insn	2, 0x0500
    mret
 1ac:	08dc                	.insn	2, 0x08dc
 1ae:	0000                	.insn	2, 0x
{
 1b0:	0004                	.insn	2, 0x0004
 1b2:	0400                	.insn	2, 0x0400
 1b4:	2408                	.insn	2, 0x2408
 1b6:	a004                	.insn	2, 0xa004
 1b8:	ac01                	.insn	2, 0xac01
 1ba:	0001                	.insn	2, 0x0001
 1bc:	0006d007          	.insn	4, 0x0006d007
 1c0:	bc00                	.insn	2, 0xbc00
 1c2:	0701                	.insn	2, 0x0701
 1c4:	0000                	.insn	2, 0x
 1c6:	0000                	.insn	2, 0x
    for (int i = 0; i < TASK_ITERS; i++) {
 1c8:	070c                	.insn	2, 0x070c
 1ca:	078c                	.insn	2, 0x078c
        uart_printf("[task1] iter=%d tick=%u\n", i, timer_count);
 1cc:	0000                	.insn	2, 0x
 1ce:	071c                	.insn	2, 0x071c
 1d0:	0000                	.insn	2, 0x
 1d2:	0000                	.insn	2, 0x
    for (int i = 0; i < TASK_ITERS; i++) {
 1d4:	071c                	.insn	2, 0x071c
 1d6:	07a8                	.insn	2, 0x07a8
        uart_printf("[task1] iter=%d tick=%u\n", i, timer_count);
 1d8:	0000                	.insn	2, 0x
 1da:	04b8                	.insn	2, 0x04b8
	...

Disassembly of section .debug_line:

00000000 <.debug_line>:
    la      gp, __global_pointer$
       0:	0458                	.insn	2, 0x0458
       2:	0000                	.insn	2, 0x
       4:	0005                	.insn	2, 0x0005
       6:	0004                	.insn	2, 0x0004
    la      sp, __stack_top
       8:	0054                	.insn	2, 0x0054
       a:	0000                	.insn	2, 0x
       c:	0101                	.insn	2, 0x0101
       e:	fb01                	.insn	2, 0xfb01
    la      a0, _data_lma
      10:	0d0e                	.insn	2, 0x0d0e
      12:	0100                	.insn	2, 0x0100
      14:	0101                	.insn	2, 0x0101
      16:	0001                	.insn	2, 0x0001
    la      a1, _data
      18:	0000                	.insn	2, 0x
      1a:	0001                	.insn	2, 0x0001
      1c:	0100                	.insn	2, 0x0100
      1e:	0101                	.insn	2, 0x0101
    la      a2, _edata
      20:	041f 0000 0000      	.insn	6, 0x041f
      26:	0000                	.insn	2, 0x
    bgeu    a1, a2, 2f
      28:	0000                	.insn	2, 0x
      2a:	0059                	.insn	2, 0x0059
    lw      t0, 0(a0)
      2c:	0000                	.insn	2, 0x
      2e:	0081                	.insn	2, 0x0081
    sw      t0, 0(a1)
      30:	0000                	.insn	2, 0x
      32:	0102                	.insn	2, 0x0102
    addi    a0, a0, 4
      34:	021f 080f 0052      	.insn	6, 0x0052080f021f
    addi    a1, a1, 4
      3a:	0000                	.insn	2, 0x
    bltu    a1, a2, 1b
      3c:	5201                	.insn	2, 0x5201
      3e:	0000                	.insn	2, 0x
    la      a0, _fbss
      40:	0000                	.insn	2, 0x
      42:	00b1                	.insn	2, 0x00b1
      44:	0000                	.insn	2, 0x
      46:	b902                	.insn	2, 0xb902
    la      a1, _end
      48:	0000                	.insn	2, 0x
      4a:	0200                	.insn	2, 0x0200
      4c:	000000bf 0000c803 	.insn	8, 0xc803000000bf
    sw      zero, 0(a0)
      54:	0200                	.insn	2, 0x0200
      56:	000000cf          	.insn	4, 0x00cf
    addi    a0, a0, 4
      5a:	d700                	.insn	2, 0xd700
    bltu    a0, a1, 1b
      5c:	0000                	.insn	2, 0x
      5e:	0200                	.insn	2, 0x0200
    call    main
      60:	0105                	.insn	2, 0x0105
      62:	0500                	.insn	2, 0x0500
    j       .L_halt
      64:	b002                	.insn	2, 0xb002
      66:	0001                	.insn	2, 0x0001
      68:	0300                	.insn	2, 0x0300
      6a:	00c6                	.insn	2, 0x00c6
      6c:	0501                	.insn	2, 0x0501
      6e:	0305                	.insn	2, 0x0305
    addi    sp, sp, -FRAME_SIZE
      70:	0901                	.insn	2, 0x0901
      72:	0000                	.insn	2, 0x
    sw      x1,  OFF_X(1)(sp)
      74:	0501                	.insn	2, 0x0501
      76:	030a                	.insn	2, 0x030a
    sw      x2,  OFF_X(2)(sp)            /* original sp is sp+FRAME_SIZE */
      78:	0900                	.insn	2, 0x0900
      7a:	0000                	.insn	2, 0x
    sw      x3,  OFF_X(3)(sp)
      7c:	0501                	.insn	2, 0x0501
      7e:	04020017          	auipc	zero,0x4020
    sw      x4,  OFF_X(4)(sp)
      82:	0301                	.insn	2, 0x0301
    sw      x5,  OFF_X(5)(sp)
      84:	0900                	.insn	2, 0x0900
      86:	0000                	.insn	2, 0x
    sw      x6,  OFF_X(6)(sp)
      88:	0501                	.insn	2, 0x0501
      8a:	0601                	.insn	2, 0x0601
    sw      x7,  OFF_X(7)(sp)
      8c:	00097f03          	.insn	4, 0x00097f03
    sw      x8,  OFF_X(8)(sp)
      90:	0100                	.insn	2, 0x0100
      92:	0e05                	.insn	2, 0x0e05
    sw      x9,  OFF_X(9)(sp)
      94:	18090103          	lb	sp,384(s2) # c80116c0 <__stack_top+0xa7fd16c0>
    sw      x10, OFF_X(10)(sp)
      98:	0100                	.insn	2, 0x0100
      9a:	0905                	.insn	2, 0x0905
    sw      x11, OFF_X(11)(sp)
      9c:	04090103          	lb	sp,64(s2)
    sw      x12, OFF_X(12)(sp)
      a0:	0100                	.insn	2, 0x0100
      a2:	1705                	.insn	2, 0x1705
    sw      x13, OFF_X(13)(sp)
      a4:	0200                	.insn	2, 0x0200
      a6:	0104                	.insn	2, 0x0104
    sw      x14, OFF_X(14)(sp)
      a8:	08097f03          	.insn	4, 0x08097f03
    sw      x15, OFF_X(15)(sp)
      ac:	0100                	.insn	2, 0x0100
      ae:	0905                	.insn	2, 0x0905
    sw      x16, OFF_X(16)(sp)
      b0:	0306                	.insn	2, 0x0306
      b2:	0901                	.insn	2, 0x0901
    sw      x17, OFF_X(17)(sp)
      b4:	0004                	.insn	2, 0x0004
      b6:	0301                	.insn	2, 0x0301
    sw      x18, OFF_X(18)(sp)
      b8:	0901                	.insn	2, 0x0901
      ba:	0010                	.insn	2, 0x0010
    sw      x19, OFF_X(19)(sp)
      bc:	0501                	.insn	2, 0x0501
      be:	0026                	.insn	2, 0x0026
    sw      x20, OFF_X(20)(sp)
      c0:	0402                	.insn	2, 0x0402
      c2:	7e030603          	lb	a2,2016(t1)
    sw      x21, OFF_X(21)(sp)
      c6:	0009                	.insn	2, 0x0009
    sw      x22, OFF_X(22)(sp)
      c8:	0100                	.insn	2, 0x0100
      ca:	0905                	.insn	2, 0x0905
    sw      x23, OFF_X(23)(sp)
      cc:	04090203          	lb	tp,64(s2)
    sw      x24, OFF_X(24)(sp)
      d0:	0100                	.insn	2, 0x0100
      d2:	2605                	.insn	2, 0x2605
    sw      x25, OFF_X(25)(sp)
      d4:	0200                	.insn	2, 0x0200
      d6:	0304                	.insn	2, 0x0304
    sw      x26, OFF_X(26)(sp)
      d8:	0306                	.insn	2, 0x0306
      da:	097e                	.insn	2, 0x097e
    sw      x27, OFF_X(27)(sp)
      dc:	0004                	.insn	2, 0x0004
      de:	0501                	.insn	2, 0x0501
    sw      x28, OFF_X(28)(sp)
      e0:	04020017          	auipc	zero,0x4020
    sw      x29, OFF_X(29)(sp)
      e4:	0301                	.insn	2, 0x0301
      e6:	0900                	.insn	2, 0x0900
    sw      x30, OFF_X(30)(sp)
      e8:	0000                	.insn	2, 0x
      ea:	0501                	.insn	2, 0x0501
    sw      x31, OFF_X(31)(sp)
      ec:	0305                	.insn	2, 0x0305
      ee:	0904                	.insn	2, 0x0904
    addi    t0, sp, FRAME_SIZE
      f0:	0004                	.insn	2, 0x0004
      f2:	0501                	.insn	2, 0x0501
    sw      t0, OFF_X(2)(sp)
      f4:	0612                	.insn	2, 0x0612
      f6:	00090003          	lb	zero,0(s2)
    csrr    t0, mepc
      fa:	0100                	.insn	2, 0x0100
    sw      t0, OFF_MEPC(sp)
      fc:	0505                	.insn	2, 0x0505
      fe:	0200                	.insn	2, 0x0200
    csrr    t0, mcause
     100:	0104                	.insn	2, 0x0104
     102:	0306                	.insn	2, 0x0306
    sw      t0, OFF_MCAUSE(sp)
     104:	0901                	.insn	2, 0x0901
     106:	0010                	.insn	2, 0x0010
    csrr    t0, mtval
     108:	0501                	.insn	2, 0x0501
     10a:	000e                	.insn	2, 0x000e
    sw      t0, OFF_MTVAL(sp)
     10c:	0402                	.insn	2, 0x0402
     10e:	0301                	.insn	2, 0x0301
    csrr    t0, mstatus
     110:	0900                	.insn	2, 0x0900
     112:	0000                	.insn	2, 0x
    sw      t0, OFF_MSTATUS(sp)
     114:	0501                	.insn	2, 0x0501
     116:	0005                	.insn	2, 0x0005
    mv      a0, sp
     118:	0402                	.insn	2, 0x0402
     11a:	0301                	.insn	2, 0x0301
    call    bsp_trap_dispatch
     11c:	0900                	.insn	2, 0x0900
     11e:	0004                	.insn	2, 0x0004
    lw      t0, OFF_MEPC(sp)
     120:	0901                	.insn	2, 0x0901
     122:	0004                	.insn	2, 0x0004
    csrw    mepc, t0
     124:	0100                	.insn	2, 0x0100
     126:	0501                	.insn	2, 0x0501
    lw      t0, OFF_MSTATUS(sp)
     128:	0001                	.insn	2, 0x0001
     12a:	0205                	.insn	2, 0x0205
    csrw    mstatus, t0
     12c:	020c                	.insn	2, 0x020c
     12e:	0000                	.insn	2, 0x
    lw      x1,  OFF_X(1)(sp)
     130:	05013a03          	.insn	4, 0x05013a03
    lw      x3,  OFF_X(3)(sp)
     134:	0305                	.insn	2, 0x0305
     136:	0901                	.insn	2, 0x0901
    lw      x4,  OFF_X(4)(sp)
     138:	0000                	.insn	2, 0x
     13a:	0501                	.insn	2, 0x0501
    lw      x5,  OFF_X(5)(sp)
     13c:	030a                	.insn	2, 0x030a
     13e:	0900                	.insn	2, 0x0900
    lw      x6,  OFF_X(6)(sp)
     140:	0000                	.insn	2, 0x
     142:	0501                	.insn	2, 0x0501
    lw      x7,  OFF_X(7)(sp)
     144:	04020017          	auipc	zero,0x4020
    lw      x8,  OFF_X(8)(sp)
     148:	0301                	.insn	2, 0x0301
     14a:	0900                	.insn	2, 0x0900
    lw      x9,  OFF_X(9)(sp)
     14c:	0000                	.insn	2, 0x
     14e:	0501                	.insn	2, 0x0501
    lw      x10, OFF_X(10)(sp)
     150:	0601                	.insn	2, 0x0601
     152:	00097f03          	.insn	4, 0x00097f03
    lw      x11, OFF_X(11)(sp)
     156:	0100                	.insn	2, 0x0100
    lw      x12, OFF_X(12)(sp)
     158:	0e05                	.insn	2, 0x0e05
     15a:	18090103          	lb	sp,384(s2)
    lw      x13, OFF_X(13)(sp)
     15e:	0100                	.insn	2, 0x0100
    lw      x14, OFF_X(14)(sp)
     160:	0905                	.insn	2, 0x0905
     162:	04090103          	lb	sp,64(s2)
    lw      x15, OFF_X(15)(sp)
     166:	0100                	.insn	2, 0x0100
    lw      x16, OFF_X(16)(sp)
     168:	1705                	.insn	2, 0x1705
     16a:	0200                	.insn	2, 0x0200
    lw      x17, OFF_X(17)(sp)
     16c:	0104                	.insn	2, 0x0104
     16e:	08097f03          	.insn	4, 0x08097f03
    lw      x18, OFF_X(18)(sp)
     172:	0100                	.insn	2, 0x0100
    lw      x19, OFF_X(19)(sp)
     174:	0905                	.insn	2, 0x0905
     176:	0306                	.insn	2, 0x0306
    lw      x20, OFF_X(20)(sp)
     178:	0901                	.insn	2, 0x0901
     17a:	0004                	.insn	2, 0x0004
    lw      x21, OFF_X(21)(sp)
     17c:	0301                	.insn	2, 0x0301
     17e:	0901                	.insn	2, 0x0901
    lw      x22, OFF_X(22)(sp)
     180:	0010                	.insn	2, 0x0010
     182:	0501                	.insn	2, 0x0501
    lw      x23, OFF_X(23)(sp)
     184:	0026                	.insn	2, 0x0026
     186:	0402                	.insn	2, 0x0402
    lw      x24, OFF_X(24)(sp)
     188:	7e030603          	lb	a2,2016(t1)
    lw      x25, OFF_X(25)(sp)
     18c:	0009                	.insn	2, 0x0009
     18e:	0100                	.insn	2, 0x0100
    lw      x26, OFF_X(26)(sp)
     190:	0905                	.insn	2, 0x0905
     192:	04090203          	lb	tp,64(s2)
    lw      x27, OFF_X(27)(sp)
     196:	0100                	.insn	2, 0x0100
    lw      x28, OFF_X(28)(sp)
     198:	2605                	.insn	2, 0x2605
     19a:	0200                	.insn	2, 0x0200
    lw      x29, OFF_X(29)(sp)
     19c:	0304                	.insn	2, 0x0304
     19e:	0306                	.insn	2, 0x0306
    lw      x30, OFF_X(30)(sp)
     1a0:	097e                	.insn	2, 0x097e
     1a2:	0004                	.insn	2, 0x0004
    lw      x31, OFF_X(31)(sp)
     1a4:	0501                	.insn	2, 0x0501
     1a6:	04020017          	auipc	zero,0x4020
    addi    sp, sp, FRAME_SIZE
     1aa:	0301                	.insn	2, 0x0301
    mret
     1ac:	0900                	.insn	2, 0x0900
     1ae:	0000                	.insn	2, 0x
{
     1b0:	0501                	.insn	2, 0x0501
     1b2:	0305                	.insn	2, 0x0305
     1b4:	0904                	.insn	2, 0x0904
     1b6:	0004                	.insn	2, 0x0004
     1b8:	0501                	.insn	2, 0x0501
     1ba:	0612                	.insn	2, 0x0612
     1bc:	00090003          	lb	zero,0(s2)
     1c0:	0100                	.insn	2, 0x0100
     1c2:	0505                	.insn	2, 0x0505
     1c4:	0200                	.insn	2, 0x0200
     1c6:	0104                	.insn	2, 0x0104
    for (int i = 0; i < TASK_ITERS; i++) {
     1c8:	0306                	.insn	2, 0x0306
     1ca:	000c0903          	lb	s2,0(s8)
        uart_printf("[task1] iter=%d tick=%u\n", i, timer_count);
     1ce:	0501                	.insn	2, 0x0501
     1d0:	000e                	.insn	2, 0x000e
     1d2:	0402                	.insn	2, 0x0402
    for (int i = 0; i < TASK_ITERS; i++) {
     1d4:	0301                	.insn	2, 0x0301
     1d6:	0900                	.insn	2, 0x0900
        uart_printf("[task1] iter=%d tick=%u\n", i, timer_count);
     1d8:	0000                	.insn	2, 0x
     1da:	0501                	.insn	2, 0x0501
     1dc:	0005                	.insn	2, 0x0005
     1de:	0402                	.insn	2, 0x0402
     1e0:	0301                	.insn	2, 0x0301
     1e2:	0900                	.insn	2, 0x0900
     1e4:	0004                	.insn	2, 0x0004
     1e6:	0901                	.insn	2, 0x0901
    for (int i = 0; i < TASK_ITERS; i++) {
     1e8:	0004                	.insn	2, 0x0004
     1ea:	0100                	.insn	2, 0x0100
        task_yield();
     1ec:	0401                	.insn	2, 0x0401
     1ee:	0502                	.insn	2, 0x0502
    for (int i = 0; i < TASK_ITERS; i++) {
     1f0:	0018                	.insn	2, 0x0018
     1f2:	0205                	.insn	2, 0x0205
    task_done[1] = 1;
     1f4:	0264                	.insn	2, 0x0264
     1f6:	0000                	.insn	2, 0x
     1f8:	0100cf03          	lbu	t5,16(ra) # 532 <default_timer+0x6>
     1fc:	0505                	.insn	2, 0x0505
     1fe:	00090203          	lb	tp,0(s2)
     202:	0100                	.insn	2, 0x0100
    for (;;) task_yield();
     204:	0304                	.insn	2, 0x0304
     206:	0c05                	.insn	2, 0x0c05
     208:	0306                	.insn	2, 0x0306
     20a:	0978                	.insn	2, 0x0978
{
     20c:	0000                	.insn	2, 0x
     20e:	0401                	.insn	2, 0x0401
     210:	0502                	.insn	2, 0x0502
     212:	0605                	.insn	2, 0x0605
     214:	10096603          	.insn	4, 0x10096603
     218:	0100                	.insn	2, 0x0100
     21a:	00090103          	lb	sp,0(s2)
     21e:	0100                	.insn	2, 0x0100
     220:	0905                	.insn	2, 0x0905
     222:	00090103          	lb	sp,0(s2)
    for (int i = 0; i < TASK_ITERS; i++) {
     226:	0100                	.insn	2, 0x0100
        uart_printf("[task0] iter=%d tick=%u\n", i, timer_count);
     228:	0304                	.insn	2, 0x0304
     22a:	0505                	.insn	2, 0x0505
     22c:	00091803          	lh	a6,0(s2)
    for (int i = 0; i < TASK_ITERS; i++) {
     230:	0100                	.insn	2, 0x0100
     232:	0c05                	.insn	2, 0x0c05
        uart_printf("[task0] iter=%d tick=%u\n", i, timer_count);
     234:	0306                	.insn	2, 0x0306
     236:	0900                	.insn	2, 0x0900
     238:	0000                	.insn	2, 0x
     23a:	0401                	.insn	2, 0x0401
     23c:	0502                	.insn	2, 0x0502
     23e:	0609                	.insn	2, 0x0609
     240:	04096903          	.insn	4, 0x04096903
    for (int i = 0; i < TASK_ITERS; i++) {
     244:	0100                	.insn	2, 0x0100
     246:	0304                	.insn	2, 0x0304
        task_yield();
     248:	0505                	.insn	2, 0x0505
     24a:	00091703          	lh	a4,0(s2)
    for (int i = 0; i < TASK_ITERS; i++) {
     24e:	0100                	.insn	2, 0x0100
    task_done[0] = 1;
     250:	0c05                	.insn	2, 0x0c05
     252:	0306                	.insn	2, 0x0306
     254:	0900                	.insn	2, 0x0900
     256:	0000                	.insn	2, 0x
     258:	0401                	.insn	2, 0x0401
     25a:	0502                	.insn	2, 0x0502
    for (;;) task_yield();
     25c:	0609                	.insn	2, 0x0609
     25e:	04096a03          	.insn	4, 0x04096a03
     262:	0100                	.insn	2, 0x0100
    return *(volatile uint32_t *)addr;
     264:	0304                	.insn	2, 0x0304
     266:	0505                	.insn	2, 0x0505
     268:	00091603          	lh	a2,0(s2)
     26c:	0100                	.insn	2, 0x0100
     26e:	0c05                	.insn	2, 0x0c05
     270:	0306                	.insn	2, 0x0306
     272:	0900                	.insn	2, 0x0900
     274:	0000                	.insn	2, 0x
     276:	0401                	.insn	2, 0x0401
     278:	0502                	.insn	2, 0x0502
     27a:	0012                	.insn	2, 0x0012
     27c:	0402                	.insn	2, 0x0402
     27e:	0601                	.insn	2, 0x0601
    } while (hi0 != hi1);
     280:	04096b03          	.insn	4, 0x04096b03
    uint64_t deadline = clint_mtime() + delta_ticks;
     284:	0100                	.insn	2, 0x0100
     286:	0505                	.insn	2, 0x0505
     288:	04090103          	lb	sp,64(s2)
     28c:	0100                	.insn	2, 0x0100
     28e:	0e05                	.insn	2, 0x0e05
     290:	0200                	.insn	2, 0x0200
     292:	0104                	.insn	2, 0x0104
     294:	0306                	.insn	2, 0x0306
     296:	091c                	.insn	2, 0x091c
    *(volatile uint32_t *)addr = v;
     298:	0000                	.insn	2, 0x
     29a:	0501                	.insn	2, 0x0501
     29c:	0605                	.insn	2, 0x0605
     29e:	14090103          	lb	sp,320(s2)
     2a2:	0100                	.insn	2, 0x0100
     2a4:	00096f03          	.insn	4, 0x00096f03
     2a8:	0100                	.insn	2, 0x0100
     2aa:	0304                	.insn	2, 0x0304
     2ac:	00090403          	lb	s0,0(s2)
}
     2b0:	0100                	.insn	2, 0x0100
     2b2:	2005                	.insn	2, 0x2005
    timer_count++;
     2b4:	0306                	.insn	2, 0x0306
     2b6:	0900                	.insn	2, 0x0900
     2b8:	0000                	.insn	2, 0x
     2ba:	0401                	.insn	2, 0x0401
     2bc:	0502                	.insn	2, 0x0502
     2be:	0605                	.insn	2, 0x0605
     2c0:	0c097d03          	.insn	4, 0x0c097d03
    clint_schedule_relative(TICK_INTERVAL_TICKS);
     2c4:	0100                	.insn	2, 0x0100
     2c6:	0304                	.insn	2, 0x0304
{
     2c8:	00090303          	lb	t1,0(s2)
     2cc:	0100                	.insn	2, 0x0100
     2ce:	2005                	.insn	2, 0x2005
     2d0:	0306                	.insn	2, 0x0306
     2d2:	0900                	.insn	2, 0x0900
     2d4:	0000                	.insn	2, 0x
     2d6:	0401                	.insn	2, 0x0401
    bsp_init();
     2d8:	0502                	.insn	2, 0x0502
     2da:	0605                	.insn	2, 0x0605
    uart_puts("os_demo boot\n");
     2dc:	08097e03          	.insn	4, 0x08097e03
     2e0:	0100                	.insn	2, 0x0100
     2e2:	0304                	.insn	2, 0x0304
     2e4:	00090203          	lb	tp,0(s2)
    bsp_set_timer_handler(timer_tick);
     2e8:	0100                	.insn	2, 0x0100
     2ea:	2005                	.insn	2, 0x2005
     2ec:	0306                	.insn	2, 0x0306
     2ee:	0900                	.insn	2, 0x0900
    clint_schedule_relative(TICK_INTERVAL_TICKS);
     2f0:	0000                	.insn	2, 0x
     2f2:	0401                	.insn	2, 0x0401
    bsp_enable_timer_interrupt();
     2f4:	0502                	.insn	2, 0x0502
     2f6:	0605                	.insn	2, 0x0605
    bsp_irq_enable();
     2f8:	04090e03          	lb	t3,64(s2)
    sched_init();
     2fc:	0100                	.insn	2, 0x0100
     2fe:	0105                	.insn	2, 0x0105
    if (task_create(task0) < 0 || task_create(task1) < 0) {
     300:	0306                	.insn	2, 0x0306
     302:	0901                	.insn	2, 0x0901
     304:	0000                	.insn	2, 0x
     306:	0901                	.insn	2, 0x0901
     308:	0004                	.insn	2, 0x0004
     30a:	0100                	.insn	2, 0x0100
     30c:	0501                	.insn	2, 0x0501
     30e:	0001                	.insn	2, 0x0001
     310:	0205                	.insn	2, 0x0205
     312:	02b4                	.insn	2, 0x02b4
     314:	0000                	.insn	2, 0x
     316:	05012f03          	lw	t5,80(sp)
    while (!(task_done[0] && task_done[1])) {
     31a:	0305                	.insn	2, 0x0305
     31c:	0901                	.insn	2, 0x0901
     31e:	0000                	.insn	2, 0x
     320:	0301                	.insn	2, 0x0301
     322:	0901                	.insn	2, 0x0901
     324:	0000                	.insn	2, 0x
     326:	0501                	.insn	2, 0x0501
     328:	0610                	.insn	2, 0x0610
     32a:	00090003          	lb	zero,0(s2)
     32e:	0100                	.insn	2, 0x0100
    bsp_irq_disable();
     330:	0505                	.insn	2, 0x0505
     332:	0306                	.insn	2, 0x0306
    uart_printf("os_demo: all tasks finished (ticks=%u)\n", timer_count);
     334:	0905                	.insn	2, 0x0905
     336:	0010                	.insn	2, 0x0010
     338:	0901                	.insn	2, 0x0901
     33a:	0004                	.insn	2, 0x0004
     33c:	0100                	.insn	2, 0x0100
     33e:	0501                	.insn	2, 0x0501
     340:	0001                	.insn	2, 0x0001
     342:	0205                	.insn	2, 0x0205
     344:	02c8                	.insn	2, 0x02c8
     346:	0000                	.insn	2, 0x
    uart_puts("OS_DEMO_PASS\n");
     348:	0100d003          	lhu	zero,16(ra)
     34c:	0505                	.insn	2, 0x0505
     34e:	00090103          	lb	sp,0(s2)
     352:	0100                	.insn	2, 0x0100
        __asm__ volatile("wfi");
     354:	0105                	.insn	2, 0x0105
     356:	0306                	.insn	2, 0x0306
    for (;;) {
     358:	097f 0000 0501 0305 	.insn	10, 0x0901030505010000097f
     360:	0901 
        uart_puts("os_demo: task_create failed\n");
     362:	0010                	.insn	2, 0x0010
     364:	0601                	.insn	2, 0x0601
     366:	04090103          	lb	sp,64(s2)
        for (;;) {}
     36a:	0100                	.insn	2, 0x0100
        task_yield();
     36c:	0c090203          	lb	tp,192(s2)
     370:	0100                	.insn	2, 0x0100
     372:	08090103          	lb	sp,128(s2)
    ntasks   = 1;
     376:	0100                	.insn	2, 0x0100
     378:	04090103          	lb	sp,64(s2)
    cur_task = 0;
     37c:	0100                	.insn	2, 0x0100
     37e:	04090103          	lb	sp,64(s2)
     382:	0100                	.insn	2, 0x0100
}
     384:	04090203          	lb	tp,64(s2)
{
     388:	0100                	.insn	2, 0x0100
     38a:	04090103          	lb	sp,64(s2)
    if (ntasks >= SCHED_MAX_TASKS) {
     38e:	0100                	.insn	2, 0x0100
     390:	0905                	.insn	2, 0x0905
     392:	0306                	.insn	2, 0x0306
     394:	0900                	.insn	2, 0x0900
     396:	0000                	.insn	2, 0x
    int id = ntasks++;
     398:	0501                	.insn	2, 0x0501
     39a:	0008                	.insn	2, 0x0008
     39c:	0402                	.insn	2, 0x0402
     39e:	0301                	.insn	2, 0x0301
    struct sched_ctx *c = &tasks[id];
     3a0:	0900                	.insn	2, 0x0900
     3a2:	0008                	.insn	2, 0x0008
     3a4:	0501                	.insn	2, 0x0501
     3a6:	04020023          	sb	zero,64(tp) # 11100 <__stack_size+0x9100>
     3aa:	0301                	.insn	2, 0x0301
     3ac:	0900                	.insn	2, 0x0900
     3ae:	0004                	.insn	2, 0x0004
     3b0:	0501                	.insn	2, 0x0501
     3b2:	0020                	.insn	2, 0x0020
     3b4:	0402                	.insn	2, 0x0402
     3b6:	0301                	.insn	2, 0x0301
     3b8:	0900                	.insn	2, 0x0900
     3ba:	0008                	.insn	2, 0x0008
        p[i] = 0;
     3bc:	0501                	.insn	2, 0x0501
     3be:	09050317          	auipc	t1,0x9050
    for (unsigned i = 0; i < sizeof(*c) / sizeof(uint32_t); i++) {
     3c2:	0004                	.insn	2, 0x0004
     3c4:	0501                	.insn	2, 0x0501
     3c6:	04020027          	.insn	4, 0x04020027
    c->ra = (uint32_t)(uintptr_t)entry;
     3ca:	0301                	.insn	2, 0x0301
     3cc:	0900                	.insn	2, 0x0900
     3ce:	0004                	.insn	2, 0x0004
    c->sp = (uint32_t)(uintptr_t)&stacks[id][SCHED_STACK_SIZE];
     3d0:	0501                	.insn	2, 0x0501
     3d2:	060c                	.insn	2, 0x060c
    c->ra = (uint32_t)(uintptr_t)entry;
     3d4:	04090003          	lb	zero,64(s2)
    c->sp = (uint32_t)(uintptr_t)&stacks[id][SCHED_STACK_SIZE];
     3d8:	0100                	.insn	2, 0x0100
     3da:	1705                	.insn	2, 0x1705
     3dc:	0306                	.insn	2, 0x0306
     3de:	0900                	.insn	2, 0x0900
     3e0:	0000                	.insn	2, 0x
     3e2:	0501                	.insn	2, 0x0501
    c->ra = (uint32_t)(uintptr_t)entry;
     3e4:	030c                	.insn	2, 0x030c
     3e6:	0900                	.insn	2, 0x0900
    c->sp = (uint32_t)(uintptr_t)&stacks[id][SCHED_STACK_SIZE];
     3e8:	0004                	.insn	2, 0x0004
     3ea:	0501                	.insn	2, 0x0501
    return id;
     3ec:	04020027          	.insn	4, 0x04020027
        return -1;
     3f0:	0301                	.insn	2, 0x0301
     3f2:	0900                	.insn	2, 0x0900
}
     3f4:	0004                	.insn	2, 0x0004
     3f6:	0501                	.insn	2, 0x0501
    if (ntasks <= 1) return;
     3f8:	000c                	.insn	2, 0x000c
     3fa:	0402                	.insn	2, 0x0402
     3fc:	0301                	.insn	2, 0x0301
     3fe:	0900                	.insn	2, 0x0900
     400:	0004                	.insn	2, 0x0004
     402:	0501                	.insn	2, 0x0501
    int prev = cur_task;
     404:	0605                	.insn	2, 0x0605
     406:	04090403          	lb	s0,64(s2)
     40a:	0100                	.insn	2, 0x0100
    sched_switch(&tasks[prev], &tasks[next]);
     40c:	04090203          	lb	tp,64(s2)
     410:	0100                	.insn	2, 0x0100
     412:	14090103          	lb	sp,320(s2)
    int next = (cur_task + 1) % ntasks;
     416:	0100                	.insn	2, 0x0100
     418:	0c090203          	lb	tp,192(s2)
    cur_task = next;
     41c:	0100                	.insn	2, 0x0100
     41e:	0905                	.insn	2, 0x0905
    sched_switch(&tasks[prev], &tasks[next]);
     420:	0200                	.insn	2, 0x0200
     422:	0104                	.insn	2, 0x0104
     424:	00090103          	lb	sp,0(s2)
     428:	0100                	.insn	2, 0x0100
     42a:	0505                	.insn	2, 0x0505
     42c:	04097f03          	.insn	4, 0x04097f03
     430:	0100                	.insn	2, 0x0100
     432:	0905                	.insn	2, 0x0905
     434:	04097303          	.insn	4, 0x04097303
}
     438:	0100                	.insn	2, 0x0100
     43a:	0c090103          	lb	sp,192(s2)
    sw   ra,  0(a0)
     43e:	0100                	.insn	2, 0x0100
    sw   sp,  4(a0)
     440:	1305                	.insn	2, 0x1305
     442:	00090003          	lb	zero,0(s2)
    sw   s0,  8(a0)
     446:	0100                	.insn	2, 0x0100
    sw   s1, 12(a0)
     448:	0905                	.insn	2, 0x0905
     44a:	00090003          	lb	zero,0(s2)
    sw   s2, 16(a0)
     44e:	0100                	.insn	2, 0x0100
    sw   s3, 20(a0)
     450:	04090403          	lb	s0,64(s2)
    sw   s4, 24(a0)
     454:	0100                	.insn	2, 0x0100
     456:	0809                	.insn	2, 0x0809
    sw   s5, 28(a0)
     458:	0000                	.insn	2, 0x
     45a:	0101                	.insn	2, 0x0101
    sw   s6, 32(a0)
     45c:	0211                	.insn	2, 0x0211
     45e:	0000                	.insn	2, 0x
    sw   s7, 36(a0)
     460:	0005                	.insn	2, 0x0005
     462:	0004                	.insn	2, 0x0004
    sw   s8, 40(a0)
     464:	003c                	.insn	2, 0x003c
     466:	0000                	.insn	2, 0x
    sw   s9, 44(a0)
     468:	0101                	.insn	2, 0x0101
     46a:	fb01                	.insn	2, 0xfb01
    sw   s10,48(a0)
     46c:	0d0e                	.insn	2, 0x0d0e
     46e:	0100                	.insn	2, 0x0100
    sw   s11,52(a0)
     470:	0101                	.insn	2, 0x0101
     472:	0001                	.insn	2, 0x0001
    lw   ra,  0(a1)
     474:	0000                	.insn	2, 0x
     476:	0001                	.insn	2, 0x0001
    lw   sp,  4(a1)
     478:	0100                	.insn	2, 0x0100
     47a:	0101                	.insn	2, 0x0101
    lw   s0,  8(a1)
     47c:	031f 0000 0000      	.insn	6, 0x031f
    lw   s1, 12(a1)
     482:	0000                	.insn	2, 0x
    lw   s2, 16(a1)
     484:	0000                	.insn	2, 0x
     486:	0081                	.insn	2, 0x0081
    lw   s3, 20(a1)
     488:	0000                	.insn	2, 0x
     48a:	0102                	.insn	2, 0x0102
    lw   s4, 24(a1)
     48c:	021f 040f 0107      	.insn	6, 0x0107040f021f
    lw   s5, 28(a1)
     492:	0000                	.insn	2, 0x
    lw   s6, 32(a1)
     494:	0701                	.insn	2, 0x0701
     496:	0001                	.insn	2, 0x0001
    lw   s7, 36(a1)
     498:	0000                	.insn	2, 0x
     49a:	000000bf 0000cf02 	.insn	8, 0xcf02000000bf
    lw   s9, 44(a1)
     4a2:	0000                	.insn	2, 0x
    lw   s10,48(a1)
     4a4:	0105                	.insn	2, 0x0105
     4a6:	0500                	.insn	2, 0x0500
    lw   s11,52(a1)
     4a8:	7402                	.insn	2, 0x7402
     4aa:	03000003          	lb	zero,48(zero) # 30 <_start+0x30>
    ret
     4ae:	0110                	.insn	2, 0x0110
{
     4b0:	0505                	.insn	2, 0x0505
     4b2:	00090103          	lb	sp,0(s2)
     4b6:	0100                	.insn	2, 0x0100
     4b8:	0e05                	.insn	2, 0x0e05
     4ba:	0306                	.insn	2, 0x0306
    uart_puts("\n[bsp] UNHANDLED TRAP: ");
     4bc:	0900                	.insn	2, 0x0900
     4be:	0000                	.insn	2, 0x
     4c0:	0501                	.insn	2, 0x0501
     4c2:	0605                	.insn	2, 0x0605
{
     4c4:	08090103          	lb	sp,128(s2)
     4c8:	0100                	.insn	2, 0x0100
     4ca:	0e05                	.insn	2, 0x0e05
     4cc:	0306                	.insn	2, 0x0306
     4ce:	0900                	.insn	2, 0x0900
    uart_puts("\n[bsp] UNHANDLED TRAP: ");
     4d0:	0000                	.insn	2, 0x
     4d2:	0501                	.insn	2, 0x0501
    uart_puts(tag);
     4d4:	0301                	.insn	2, 0x0301
     4d6:	00080903          	lb	s2,0(a6)
     4da:	0901                	.insn	2, 0x0901
    uart_printf("  mcause=0x%08x  mepc=0x%08x  mtval=0x%08x  mstatus=0x%08x\n",
     4dc:	0004                	.insn	2, 0x0004
     4de:	0100                	.insn	2, 0x0100
     4e0:	0501                	.insn	2, 0x0501
     4e2:	0001                	.insn	2, 0x0001
     4e4:	0205                	.insn	2, 0x0205
     4e6:	0388                	.insn	2, 0x0388
     4e8:	0000                	.insn	2, 0x
     4ea:	05011803          	lh	a6,80(sp)
     4ee:	0305                	.insn	2, 0x0305
     4f0:	0901                	.insn	2, 0x0901
     4f2:	0000                	.insn	2, 0x
     4f4:	0501                	.insn	2, 0x0501
     4f6:	0610                	.insn	2, 0x0610
    for (;;) {
     4f8:	00090003          	lb	zero,0(s2)
    default_banner(f, "exception");
     4fc:	0100                	.insn	2, 0x0100
     4fe:	0105                	.insn	2, 0x0105
{
     500:	00097f03          	.insn	4, 0x00097f03
    default_banner(f, "exception");
     504:	0100                	.insn	2, 0x0100
     506:	1005                	.insn	2, 0x1005
{
     508:	04090103          	lb	sp,64(s2)
    default_banner(f, "exception");
     50c:	0100                	.insn	2, 0x0100
     50e:	0805                	.insn	2, 0x0805
{
     510:	04090003          	lb	zero,64(s2)
     514:	0100                	.insn	2, 0x0100
     516:	0505                	.insn	2, 0x0505
     518:	0306                	.insn	2, 0x0306
     51a:	0904                	.insn	2, 0x0904
    default_banner(f, "unhandled msi");
     51c:	0008                	.insn	2, 0x0008
     51e:	0501                	.insn	2, 0x0501
     520:	0614                	.insn	2, 0x0614
     522:	00090003          	lb	zero,0(s2)
     526:	0100                	.insn	2, 0x0100
     528:	0505                	.insn	2, 0x0505
     52a:	0306                	.insn	2, 0x0306
{
     52c:	0901                	.insn	2, 0x0901
     52e:	0008                	.insn	2, 0x0008
     530:	0301                	.insn	2, 0x0301
     532:	0908                	.insn	2, 0x0908
     534:	0000                	.insn	2, 0x
     536:	0301                	.insn	2, 0x0301
     538:	0901                	.insn	2, 0x0901
     53a:	0000                	.insn	2, 0x
     53c:	0501                	.insn	2, 0x0501
     53e:	030a                	.insn	2, 0x030a
    default_banner(f, "unhandled mti");
     540:	0900                	.insn	2, 0x0900
     542:	0000                	.insn	2, 0x
     544:	0501                	.insn	2, 0x0501
     546:	001c                	.insn	2, 0x001c
     548:	0402                	.insn	2, 0x0402
     54a:	0301                	.insn	2, 0x0301
     54c:	0900                	.insn	2, 0x0900
     54e:	0000                	.insn	2, 0x
     550:	0501                	.insn	2, 0x0501
     552:	77030617          	auipc	a2,0x77030
void bsp_set_timer_handler(bsp_trap_handler_t h) { timer_handler = h; }
     556:	0009                	.insn	2, 0x0009
     558:	0100                	.insn	2, 0x0100
     55a:	0905                	.insn	2, 0x0905
void bsp_irq_enable(void)  { csr_set(mstatus, MSTATUS_MIE); }
     55c:	0306                	.insn	2, 0x0306
     55e:	090a                	.insn	2, 0x090a
     560:	001c                	.insn	2, 0x001c
     562:	0501                	.insn	2, 0x0501
     564:	060e                	.insn	2, 0x060e
     566:	00090003          	lb	zero,0(s2)
void bsp_irq_disable(void) { csr_clear(mstatus, MSTATUS_MIE); }
     56a:	0100                	.insn	2, 0x0100
     56c:	3e05                	.insn	2, 0x3e05
     56e:	0200                	.insn	2, 0x0200
     570:	0304                	.insn	2, 0x0304
     572:	0306                	.insn	2, 0x0306
void bsp_enable_timer_interrupt(void)    { csr_set(mie, MIE_MTIE); }
     574:	097f 0004 0501 001c 	.insn	10, 0x0402001c05010004097f
     57c:	0402 
     57e:	0301                	.insn	2, 0x0301
    uint32_t mcause = f->mcause;
     580:	0900                	.insn	2, 0x0900
     582:	0000                	.insn	2, 0x
{
     584:	0501                	.insn	2, 0x0501
     586:	0305                	.insn	2, 0x0305
    if (mcause & MCAUSE_INTERRUPT_BIT) {
     588:	00080903          	lb	s2,0(a6)
        uint32_t code = mcause & MCAUSE_CODE_MASK;
     58c:	0501                	.insn	2, 0x0501
     58e:	0003060b          	.insn	4, 0x0003060b
     592:	0009                	.insn	2, 0x0009
        switch (code) {
     594:	0100                	.insn	2, 0x0100
     596:	2205                	.insn	2, 0x2205
     598:	08090103          	lb	sp,128(s2)
{
     59c:	0100                	.insn	2, 0x0100
     59e:	0b05                	.insn	2, 0x0b05
     5a0:	04097f03          	.insn	4, 0x04097f03
     5a4:	0100                	.insn	2, 0x0100
     5a6:	2205                	.insn	2, 0x2205
        switch (code) {
     5a8:	04090103          	lb	sp,64(s2)
     5ac:	0100                	.insn	2, 0x0100
     5ae:	0b05                	.insn	2, 0x0b05
     5b0:	0c097f03          	.insn	4, 0x0c097f03
     5b4:	0100                	.insn	2, 0x0100
     5b6:	0505                	.insn	2, 0x0505
            default_banner(f, "unknown interrupt cause");
     5b8:	0306                	.insn	2, 0x0306
     5ba:	0901                	.insn	2, 0x0901
     5bc:	0004                	.insn	2, 0x0004
     5be:	0501                	.insn	2, 0x0501
     5c0:	0003060b          	.insn	4, 0x0003060b
            (timer_handler ? timer_handler : default_timer)(f);
     5c4:	0009                	.insn	2, 0x0009
     5c6:	0100                	.insn	2, 0x0100
     5c8:	0505                	.insn	2, 0x0505
     5ca:	0306                	.insn	2, 0x0306
     5cc:	0901                	.insn	2, 0x0901
     5ce:	0004                	.insn	2, 0x0004
        (h ? h : default_exception)(f);
     5d0:	0501                	.insn	2, 0x0501
     5d2:	060c                	.insn	2, 0x060c
     5d4:	00090003          	lb	zero,0(s2)
            (soft_handler ? soft_handler : default_soft)(f);
     5d8:	0100                	.insn	2, 0x0100
     5da:	1005                	.insn	2, 0x1005
     5dc:	04096e03          	.insn	4, 0x04096e03
     5e0:	0100                	.insn	2, 0x0100
     5e2:	0105                	.insn	2, 0x0105
}
     5e4:	04091303          	lh	t1,64(s2)
     5e8:	0100                	.insn	2, 0x0100
     5ea:	0409                	.insn	2, 0x0409
            (soft_handler ? soft_handler : default_soft)(f);
     5ec:	0000                	.insn	2, 0x
     5ee:	0101                	.insn	2, 0x0101
}
     5f0:	0105                	.insn	2, 0x0105
     5f2:	0500                	.insn	2, 0x0500
        (h ? h : default_exception)(f);
     5f4:	f802                	.insn	2, 0xf802
     5f6:	03000003          	lb	zero,48(zero) # 30 <_start+0x30>
    return *(volatile uint32_t *)addr;
     5fa:	0130                	.insn	2, 0x0130
     5fc:	0505                	.insn	2, 0x0505
     5fe:	00090103          	lb	sp,0(s2)
     602:	0100                	.insn	2, 0x0100
            if (irq) {
     604:	1005                	.insn	2, 0x1005
     606:	0306                	.insn	2, 0x0306
                if (irq < IRQ_HANDLER_SLOTS && irq_handlers[irq])
     608:	0900                	.insn	2, 0x0900
     60a:	0000                	.insn	2, 0x
     60c:	0501                	.insn	2, 0x0501
     60e:	0308                	.insn	2, 0x0308
     610:	0900                	.insn	2, 0x0900
     612:	0004                	.insn	2, 0x0004
     614:	0501                	.insn	2, 0x0501
     616:	0605                	.insn	2, 0x0605
     618:	08090103          	lb	sp,128(s2)
     61c:	0100                	.insn	2, 0x0100
     61e:	0905                	.insn	2, 0x0905
     620:	0306                	.insn	2, 0x0306
     622:	0900                	.insn	2, 0x0900
                    irq_handlers[irq](irq);
     624:	0000                	.insn	2, 0x
     626:	0501                	.insn	2, 0x0501
     628:	0605                	.insn	2, 0x0605
     62a:	08090103          	lb	sp,128(s2)
     62e:	0100                	.insn	2, 0x0100
    *(volatile uint32_t *)addr = v;
     630:	0306                	.insn	2, 0x0306
     632:	0902                	.insn	2, 0x0902
     634:	0000                	.insn	2, 0x
     636:	0501                	.insn	2, 0x0501
}
     638:	031a                	.insn	2, 0x031a
     63a:	097e                	.insn	2, 0x097e
     63c:	0008                	.insn	2, 0x0008
     63e:	0501                	.insn	2, 0x0501
     640:	0309                	.insn	2, 0x0309
     642:	0900                	.insn	2, 0x0900
     644:	0004                	.insn	2, 0x0004
     646:	0501                	.insn	2, 0x0501
    uart_printf("\n[bsp] UNHANDLED PLIC IRQ %u\n", irq);
     648:	0605                	.insn	2, 0x0605
     64a:	04090103          	lb	sp,64(s2)
     64e:	0100                	.insn	2, 0x0100
     650:	0e05                	.insn	2, 0x0e05
     652:	0306                	.insn	2, 0x0306
    for (;;) {}
     654:	0900                	.insn	2, 0x0900
     656:	0000                	.insn	2, 0x
            (code < EXC_HANDLER_SLOTS) ? exc_handlers[code] : NULL;
     658:	0501                	.insn	2, 0x0501
     65a:	0605                	.insn	2, 0x0605
     65c:	04090103          	lb	sp,64(s2)
     660:	0100                	.insn	2, 0x0100
     662:	0105                	.insn	2, 0x0105
     664:	0306                	.insn	2, 0x0306
     666:	0901                	.insn	2, 0x0901
     668:	0018                	.insn	2, 0x0018
     66a:	0901                	.insn	2, 0x0901
     66c:	0004                	.insn	2, 0x0004
     66e:	0100                	.insn	2, 0x0100
     670:	ee01                	.insn	2, 0xee01
     672:	0000                	.insn	2, 0x
        (h ? h : default_exception)(f);
     674:	0500                	.insn	2, 0x0500
     676:	0400                	.insn	2, 0x0400
     678:	2e00                	.insn	2, 0x2e00
     67a:	0000                	.insn	2, 0x
     67c:	0100                	.insn	2, 0x0100
     67e:	0101                	.insn	2, 0x0101
    csr_write(mtvec, (uint32_t)(uintptr_t)bsp_trap_entry);
     680:	000d0efb          	.insn	4, 0x000d0efb
     684:	0101                	.insn	2, 0x0101
     686:	0101                	.insn	2, 0x0101
    csr_write(mstatus, MSTATUS_MPP);
     688:	0000                	.insn	2, 0x
     68a:	0100                	.insn	2, 0x0100
     68c:	0000                	.insn	2, 0x
     68e:	0101                	.insn	2, 0x0101
     690:	1f01                	.insn	2, 0x1f01
     692:	0002                	.insn	2, 0x0002
    csr_write(mie, 0);
     694:	0000                	.insn	2, 0x
     696:	0000                	.insn	2, 0x
     698:	0000                	.insn	2, 0x
     69a:	0200                	.insn	2, 0x0200
    return *(volatile uint32_t *)addr;
     69c:	1f01                	.insn	2, 0x1f01
     69e:	0f02                	.insn	2, 0x0f02
     6a0:	0f02                	.insn	2, 0x0f02
     6a2:	0001                	.insn	2, 0x0001
     6a4:	0100                	.insn	2, 0x0100
     6a6:	0000010f          	.insn	4, 0x010f
    if (irq) plic_complete(irq);
     6aa:	0001                	.insn	2, 0x0001
    *(volatile uint32_t *)addr = v;
     6ac:	0205                	.insn	2, 0x0205
     6ae:	043c                	.insn	2, 0x043c
     6b0:	0000                	.insn	2, 0x
     6b2:	03011c03          	lh	s8,48(sp)
     6b6:	0901                	.insn	2, 0x0901
     6b8:	0004                	.insn	2, 0x0004
     6ba:	0301                	.insn	2, 0x0301
     6bc:	0901                	.insn	2, 0x0901
     6be:	0004                	.insn	2, 0x0004
     6c0:	0301                	.insn	2, 0x0301
     6c2:	0901                	.insn	2, 0x0901
     6c4:	0004                	.insn	2, 0x0004
     6c6:	0301                	.insn	2, 0x0301
     6c8:	0901                	.insn	2, 0x0901
     6ca:	0004                	.insn	2, 0x0004
}
     6cc:	0301                	.insn	2, 0x0301
     6ce:	0901                	.insn	2, 0x0901
{
     6d0:	0004                	.insn	2, 0x0004
     6d2:	0301                	.insn	2, 0x0301
    const char *digits = upper_case ? digits_upper : digits_lower;
     6d4:	0901                	.insn	2, 0x0901
     6d6:	0004                	.insn	2, 0x0004
     6d8:	0301                	.insn	2, 0x0301
     6da:	0901                	.insn	2, 0x0901
     6dc:	0004                	.insn	2, 0x0004
     6de:	0301                	.insn	2, 0x0301
    if (val == 0) {
     6e0:	0901                	.insn	2, 0x0901
     6e2:	0004                	.insn	2, 0x0004
        buf[i++] = '0';
     6e4:	0301                	.insn	2, 0x0301
     6e6:	0901                	.insn	2, 0x0901
     6e8:	0004                	.insn	2, 0x0004
     6ea:	0301                	.insn	2, 0x0301
     6ec:	0901                	.insn	2, 0x0901
     6ee:	0004                	.insn	2, 0x0004
    int i = 0;
     6f0:	0301                	.insn	2, 0x0301
     6f2:	0901                	.insn	2, 0x0901
    for (; i < pad_width; i++) {
     6f4:	0004                	.insn	2, 0x0004
     6f6:	0301                	.insn	2, 0x0301
     6f8:	0901                	.insn	2, 0x0901
     6fa:	0004                	.insn	2, 0x0004
     6fc:	0301                	.insn	2, 0x0301
     6fe:	0901                	.insn	2, 0x0901
     700:	0004                	.insn	2, 0x0004
     702:	0301                	.insn	2, 0x0301
     704:	0902                	.insn	2, 0x0902
     706:	0004                	.insn	2, 0x0004
     708:	0301                	.insn	2, 0x0301
     70a:	0901                	.insn	2, 0x0901
    while (i-- > 0) {
     70c:	0004                	.insn	2, 0x0004
     70e:	0301                	.insn	2, 0x0301
     710:	0901                	.insn	2, 0x0901
     712:	0004                	.insn	2, 0x0004
     714:	0301                	.insn	2, 0x0301
     716:	0901                	.insn	2, 0x0901
}
     718:	0004                	.insn	2, 0x0004
     71a:	0301                	.insn	2, 0x0301
     71c:	0901                	.insn	2, 0x0901
     71e:	0004                	.insn	2, 0x0004
    const char *digits = upper_case ? digits_upper : digits_lower;
     720:	0301                	.insn	2, 0x0301
     722:	0901                	.insn	2, 0x0901
     724:	0004                	.insn	2, 0x0004
     726:	0301                	.insn	2, 0x0301
     728:	0901                	.insn	2, 0x0901
     72a:	0004                	.insn	2, 0x0004
     72c:	0301                	.insn	2, 0x0301
     72e:	0901                	.insn	2, 0x0901
    int i = 0;
     730:	0004                	.insn	2, 0x0004
     732:	0301                	.insn	2, 0x0301
        while (val != 0 && i < 32) {
     734:	0901                	.insn	2, 0x0901
     736:	0004                	.insn	2, 0x0004
            buf[i++] = digits[val % base];
     738:	0301                	.insn	2, 0x0301
     73a:	0901                	.insn	2, 0x0901
     73c:	0004                	.insn	2, 0x0004
     73e:	0301                	.insn	2, 0x0301
     740:	0901                	.insn	2, 0x0901
     742:	0004                	.insn	2, 0x0004
     744:	0301                	.insn	2, 0x0301
     746:	0901                	.insn	2, 0x0901
     748:	0004                	.insn	2, 0x0004
     74a:	0301                	.insn	2, 0x0301
            val /= base;
     74c:	0901                	.insn	2, 0x0901
     74e:	0004                	.insn	2, 0x0004
     750:	0301                	.insn	2, 0x0301
     752:	0901                	.insn	2, 0x0901
        while (val != 0 && i < 32) {
     754:	0004                	.insn	2, 0x0004
     756:	0301                	.insn	2, 0x0301
     758:	0901                	.insn	2, 0x0901
     75a:	0004                	.insn	2, 0x0004
     75c:	0901                	.insn	2, 0x0901
     75e:	0004                	.insn	2, 0x0004
     760:	0100                	.insn	2, 0x0100
     762:	ce01                	.insn	2, 0xce01
        buf[i] = pad_char;
     764:	0006                	.insn	2, 0x0006
     766:	0500                	.insn	2, 0x0500
     768:	0400                	.insn	2, 0x0400
     76a:	5400                	.insn	2, 0x5400
     76c:	0000                	.insn	2, 0x
     76e:	0100                	.insn	2, 0x0100
    for (; i < pad_width; i++) {
     770:	0101                	.insn	2, 0x0101
     772:	000d0efb          	.insn	4, 0x000d0efb
     776:	0101                	.insn	2, 0x0101
        uart_putc(buf[i]);
     778:	0101                	.insn	2, 0x0101
     77a:	0000                	.insn	2, 0x
     77c:	0100                	.insn	2, 0x0100
     77e:	0000                	.insn	2, 0x
    mmio_write32(UART_DATA_REG, (uint8_t)c);
     780:	0101                	.insn	2, 0x0101
     782:	1f01                	.insn	2, 0x1f01
     784:	0004                	.insn	2, 0x0004
     786:	0000                	.insn	2, 0x
}
     788:	3f00                	.insn	2, 0x3f00
     78a:	0001                	.insn	2, 0x0001
     78c:	5900                	.insn	2, 0x5900
     78e:	0000                	.insn	2, 0x
    while (*s) {
     790:	8100                	.insn	2, 0x8100
     792:	0000                	.insn	2, 0x
     794:	0200                	.insn	2, 0x0200
     796:	1f01                	.insn	2, 0x1f01
}
     798:	0f02                	.insn	2, 0x0f02
     79a:	3808                	.insn	2, 0x3808
        uart_putc(*s++);
     79c:	0001                	.insn	2, 0x0001
     79e:	0100                	.insn	2, 0x0100
     7a0:	0138                	.insn	2, 0x0138
     7a2:	0000                	.insn	2, 0x
}
     7a4:	b101                	.insn	2, 0xb101
     7a6:	0000                	.insn	2, 0x
{
     7a8:	0200                	.insn	2, 0x0200
     7aa:	00b9                	.insn	2, 0x00b9
     7ac:	0000                	.insn	2, 0x
     7ae:	5f02                	.insn	2, 0x5f02
    va_start(ap, fmt);
     7b0:	0001                	.insn	2, 0x0001
     7b2:	0200                	.insn	2, 0x0200
{
     7b4:	000000bf 0000c803 	.insn	8, 0xc803000000bf
     7bc:	0200                	.insn	2, 0x0200
     7be:	000000d7          	.insn	4, 0x00d7
     7c2:	0502                	.insn	2, 0x0502
     7c4:	0001                	.insn	2, 0x0001
     7c6:	0205                	.insn	2, 0x0205
     7c8:	04b0                	.insn	2, 0x04b0
     7ca:	0000                	.insn	2, 0x
     7cc:	05012003          	lw	zero,80(sp)
     7d0:	0305                	.insn	2, 0x0305
     7d2:	0901                	.insn	2, 0x0901
     7d4:	0000                	.insn	2, 0x
     7d6:	0501                	.insn	2, 0x0501
     7d8:	0601                	.insn	2, 0x0601
     7da:	00097f03          	.insn	4, 0x00097f03
     7de:	0100                	.insn	2, 0x0100
     7e0:	0505                	.insn	2, 0x0505
     7e2:	0c090103          	lb	sp,192(s2)
     7e6:	0100                	.insn	2, 0x0100
     7e8:	0105                	.insn	2, 0x0105
     7ea:	08097f03          	.insn	4, 0x08097f03
     7ee:	0100                	.insn	2, 0x0100
    va_start(ap, fmt);
     7f0:	08090003          	lb	zero,128(s2)
        if (*p != '%') {
     7f4:	0100                	.insn	2, 0x0100
     7f6:	0505                	.insn	2, 0x0505
        if (*p == '0') {
     7f8:	04090103          	lb	sp,64(s2)
        while (*p >= '0' && *p <= '9') {
     7fc:	0100                	.insn	2, 0x0100
     7fe:	0306                	.insn	2, 0x0306
            pad_width = pad_width * 10 + (*p - '0');
     800:	0901                	.insn	2, 0x0901
     802:	0004                	.insn	2, 0x0004
        switch (*p) {
     804:	0301                	.insn	2, 0x0301
     806:	0901                	.insn	2, 0x0901
     808:	0008                	.insn	2, 0x0008
     80a:	0301                	.insn	2, 0x0301
    for (const char *p = fmt; *p; p++) {
     80c:	0902                	.insn	2, 0x0902
     80e:	001c                	.insn	2, 0x001c
     810:	0301                	.insn	2, 0x0301
     812:	00000903          	lb	s2,0(zero) # 0 <_start>
}
     816:	0301                	.insn	2, 0x0301
     818:	097d                	.insn	2, 0x097d
     81a:	0000                	.insn	2, 0x
     81c:	0901                	.insn	2, 0x0901
     81e:	0004                	.insn	2, 0x0004
     820:	0100                	.insn	2, 0x0100
     822:	0501                	.insn	2, 0x0501
     824:	0001                	.insn	2, 0x0001
     826:	0205                	.insn	2, 0x0205
     828:	04fc                	.insn	2, 0x04fc
     82a:	0000                	.insn	2, 0x
     82c:	05012c03          	lw	s8,80(sp)
     830:	0305                	.insn	2, 0x0305
     832:	0901                	.insn	2, 0x0901
     834:	0000                	.insn	2, 0x
     836:	0501                	.insn	2, 0x0501
     838:	0601                	.insn	2, 0x0601
     83a:	04097f03          	.insn	4, 0x04097f03
     83e:	0100                	.insn	2, 0x0100
        if (*p != '%') {
     840:	0505                	.insn	2, 0x0505
     842:	04090103          	lb	sp,64(s2)
     846:	0100                	.insn	2, 0x0100
     848:	0105                	.insn	2, 0x0105
     84a:	04097f03          	.insn	4, 0x04097f03
    for (const char *p = fmt; *p; p++) {
     84e:	0100                	.insn	2, 0x0100
     850:	0505                	.insn	2, 0x0505
     852:	04090103          	lb	sp,64(s2)
        if (*p == '0') {
     856:	0100                	.insn	2, 0x0100
     858:	0409                	.insn	2, 0x0409
     85a:	0000                	.insn	2, 0x
            p++;
     85c:	0101                	.insn	2, 0x0101
     85e:	0105                	.insn	2, 0x0105
        pad_char  = ' ';
     860:	0500                	.insn	2, 0x0500
     862:	1002                	.insn	2, 0x1002
     864:	0005                	.insn	2, 0x0005
     866:	0300                	.insn	2, 0x0300
            pad_width = pad_width * 10 + (*p - '0');
     868:	013c                	.insn	2, 0x013c
     86a:	0505                	.insn	2, 0x0505
            p++;
     86c:	00090103          	lb	sp,0(s2)
            pad_width = pad_width * 10 + (*p - '0');
     870:	0100                	.insn	2, 0x0100
     872:	0204                	.insn	2, 0x0204
        while (*p >= '0' && *p <= '9') {
     874:	2f05                	.insn	2, 0x2f05
     876:	00091e03          	lh	t3,0(s2)
     87a:	0100                	.insn	2, 0x0100
     87c:	0304                	.insn	2, 0x0304
     87e:	0505                	.insn	2, 0x0505
     880:	00096a03          	.insn	4, 0x00096a03
        switch (*p) {
     884:	0100                	.insn	2, 0x0100
     886:	0104                	.insn	2, 0x0104
     888:	0105                	.insn	2, 0x0105
     88a:	0306                	.insn	2, 0x0306
     88c:	00000977          	.insn	4, 0x0977
     890:	0401                	.insn	2, 0x0401
     892:	03200503          	lb	a0,50(zero) # 32 <_start+0x32>
     896:	0909                	.insn	2, 0x0909
     898:	0008                	.insn	2, 0x0008
     89a:	0401                	.insn	2, 0x0401
     89c:	0501                	.insn	2, 0x0501
     89e:	0305                	.insn	2, 0x0305
     8a0:	0979                	.insn	2, 0x0979
     8a2:	0004                	.insn	2, 0x0004
     8a4:	0401                	.insn	2, 0x0401
     8a6:	03200503          	lb	a0,50(zero) # 32 <_start+0x32>
     8aa:	00040907          	.insn	4, 0x00040907
     8ae:	0401                	.insn	2, 0x0401
    mmio_write32(UART_DATA_REG, (uint8_t)c);
     8b0:	0501                	.insn	2, 0x0501
     8b2:	0605                	.insn	2, 0x0605
     8b4:	04097903          	.insn	4, 0x04097903
        p++;
     8b8:	0100                	.insn	2, 0x0100
     8ba:	0809                	.insn	2, 0x0809
        pad_char  = ' ';
     8bc:	0000                	.insn	2, 0x
     8be:	0101                	.insn	2, 0x0101
     8c0:	0105                	.insn	2, 0x0105
     8c2:	0500                	.insn	2, 0x0500
        switch (*p) {
     8c4:	2c02                	.insn	2, 0x2c02
     8c6:	0005                	.insn	2, 0x0005
     8c8:	0300                	.insn	2, 0x0300
     8ca:	0131                	.insn	2, 0x0131
     8cc:	0505                	.insn	2, 0x0505
     8ce:	00090403          	lb	s0,0(s2)
     8d2:	0100                	.insn	2, 0x0100
            put_int(va_arg(ap, int32_t), pad_width, pad_char);
     8d4:	00090103          	lb	sp,0(s2)
     8d8:	0100                	.insn	2, 0x0100
     8da:	0304                	.insn	2, 0x0304
     8dc:	00090f03          	lb	t5,0(s2)
     8e0:	0100                	.insn	2, 0x0100
     8e2:	0104                	.insn	2, 0x0104
    if (val < 0) {
     8e4:	0105                	.insn	2, 0x0105
     8e6:	0306                	.insn	2, 0x0306
     8e8:	096c                	.insn	2, 0x096c
     8ea:	0000                	.insn	2, 0x
     8ec:	0401                	.insn	2, 0x0401
     8ee:	03200503          	lb	a0,50(zero) # 32 <_start+0x32>
     8f2:	0914                	.insn	2, 0x0914
        put_uint((uint32_t)(-(int64_t)val), 10, 0, pad_width, pad_char);
     8f4:	0008                	.insn	2, 0x0008
     8f6:	0401                	.insn	2, 0x0401
     8f8:	0501                	.insn	2, 0x0501
     8fa:	0605                	.insn	2, 0x0605
     8fc:	0c097203          	.insn	4, 0x0c097203
            put_uint((uint32_t)(uintptr_t)va_arg(ap, void *), 16, 0, 8, '0');
     900:	0100                	.insn	2, 0x0100
     902:	0304                	.insn	2, 0x0304
            break;
     904:	00090e03          	lb	t3,0(s2)
        switch (*p) {
     908:	0100                	.insn	2, 0x0100
     90a:	0104                	.insn	2, 0x0104
     90c:	0306                	.insn	2, 0x0306
     90e:	00000973          	.insn	4, 0x0973
     912:	0401                	.insn	2, 0x0401
     914:	03200503          	lb	a0,50(zero) # 32 <_start+0x32>
     918:	090d                	.insn	2, 0x090d
     91a:	0004                	.insn	2, 0x0004
     91c:	0401                	.insn	2, 0x0401
     91e:	0501                	.insn	2, 0x0501
            const char *s = va_arg(ap, const char *);
     920:	0605                	.insn	2, 0x0605
     922:	08097303          	.insn	4, 0x08097303
     926:	0100                	.insn	2, 0x0100
     928:	0809                	.insn	2, 0x0809
     92a:	0000                	.insn	2, 0x
     92c:	0101                	.insn	2, 0x0101
     92e:	3205                	.insn	2, 0x3205
            if (!s) s = "(null)";
     930:	0500                	.insn	2, 0x0500
     932:	5402                	.insn	2, 0x5402
     934:	0005                	.insn	2, 0x0005
     936:	0300                	.insn	2, 0x0300
     938:	00ca                	.insn	2, 0x00ca
     93a:	0501                	.insn	2, 0x0501
            uart_puts(s);
     93c:	0334                	.insn	2, 0x0334
     93e:	0900                	.insn	2, 0x0900
            break;
     940:	0000                	.insn	2, 0x
     942:	0501                	.insn	2, 0x0501
        switch (*p) {
     944:	0642                	.insn	2, 0x0642
     946:	00090003          	lb	zero,0(s2)
     94a:	0100                	.insn	2, 0x0100
            put_uint(va_arg(ap, uint32_t), 16, 0, pad_width, pad_char);
     94c:	4705                	.insn	2, 0x4705
     94e:	04090003          	lb	zero,64(s2)
     952:	0100                	.insn	2, 0x0100
     954:	0409                	.insn	2, 0x0409
     956:	0000                	.insn	2, 0x
            put_uint((uint32_t)(uintptr_t)va_arg(ap, void *), 16, 0, 8, '0');
     958:	0101                	.insn	2, 0x0101
     95a:	3205                	.insn	2, 0x3205
     95c:	0500                	.insn	2, 0x0500
     95e:	0002                	.insn	2, 0x0002
            uart_putc((char)va_arg(ap, int));
     960:	0000                	.insn	2, 0x
     962:	0300                	.insn	2, 0x0300
     964:	050100cb          	.insn	4, 0x050100cb
     968:	0334                	.insn	2, 0x0334
     96a:	0900                	.insn	2, 0x0900
    mmio_write32(UART_DATA_REG, (uint8_t)c);
     96c:	0000                	.insn	2, 0x
     96e:	0501                	.insn	2, 0x0501
     970:	0642                	.insn	2, 0x0642
     972:	00090003          	lb	zero,0(s2)
     976:	0100                	.insn	2, 0x0100
}
     978:	4705                	.insn	2, 0x4705
     97a:	00090003          	lb	zero,0(s2)
        put_uint((uint32_t)val, 10, 0, pad_width, pad_char);
     97e:	0100                	.insn	2, 0x0100
     980:	0009                	.insn	2, 0x0009
     982:	0000                	.insn	2, 0x
     984:	0101                	.insn	2, 0x0101
     986:	0105                	.insn	2, 0x0105
            put_uint(va_arg(ap, uint32_t), 10, 0, pad_width, pad_char);
     988:	0500                	.insn	2, 0x0500
     98a:	0002                	.insn	2, 0x0002
     98c:	0000                	.insn	2, 0x
     98e:	0300                	.insn	2, 0x0300
     990:	00ce                	.insn	2, 0x00ce
     992:	0501                	.insn	2, 0x0501
     994:	0305                	.insn	2, 0x0305
     996:	0901                	.insn	2, 0x0901
     998:	0000                	.insn	2, 0x
     99a:	0501                	.insn	2, 0x0501
            put_uint((uint32_t)(uintptr_t)va_arg(ap, void *), 16, 0, 8, '0');
     99c:	0608                	.insn	2, 0x0608
     99e:	00090003          	lb	zero,0(s2)
     9a2:	0100                	.insn	2, 0x0100
            put_uint(va_arg(ap, uint32_t), 16, 1, pad_width, pad_char);
     9a4:	2405                	.insn	2, 0x2405
     9a6:	0200                	.insn	2, 0x0200
     9a8:	0104                	.insn	2, 0x0104
     9aa:	0306                	.insn	2, 0x0306
     9ac:	0900                	.insn	2, 0x0900
     9ae:	0000                	.insn	2, 0x
     9b0:	0501                	.insn	2, 0x0501
     9b2:	0038                	.insn	2, 0x0038
            put_uint((uint32_t)(uintptr_t)va_arg(ap, void *), 16, 0, 8, '0');
     9b4:	0402                	.insn	2, 0x0402
     9b6:	0601                	.insn	2, 0x0601
     9b8:	00090003          	lb	zero,0(s2)
            uart_puts("0x");
     9bc:	0100                	.insn	2, 0x0100
     9be:	0105                	.insn	2, 0x0105
     9c0:	00090103          	lb	sp,0(s2)
     9c4:	0100                	.insn	2, 0x0100
     9c6:	0009                	.insn	2, 0x0009
            put_uint((uint32_t)(uintptr_t)va_arg(ap, void *), 16, 0, 8, '0');
     9c8:	0000                	.insn	2, 0x
     9ca:	0101                	.insn	2, 0x0101
     9cc:	0105                	.insn	2, 0x0105
     9ce:	0500                	.insn	2, 0x0500
     9d0:	0002                	.insn	2, 0x0002
     9d2:	0000                	.insn	2, 0x
     9d4:	0300                	.insn	2, 0x0300
     9d6:	050100d3          	.insn	4, 0x050100d3
     9da:	0305                	.insn	2, 0x0305
     9dc:	0901                	.insn	2, 0x0901
     9de:	0000                	.insn	2, 0x
     9e0:	0501                	.insn	2, 0x0501
     9e2:	0608                	.insn	2, 0x0608
     9e4:	00090003          	lb	zero,0(s2)
     9e8:	0100                	.insn	2, 0x0100
     9ea:	2205                	.insn	2, 0x2205
     9ec:	0200                	.insn	2, 0x0200
     9ee:	0104                	.insn	2, 0x0104
     9f0:	0306                	.insn	2, 0x0306
     9f2:	0900                	.insn	2, 0x0900
     9f4:	0000                	.insn	2, 0x
     9f6:	0501                	.insn	2, 0x0501
     9f8:	0034                	.insn	2, 0x0034
     9fa:	0402                	.insn	2, 0x0402
     9fc:	0601                	.insn	2, 0x0601
     9fe:	00090003          	lb	zero,0(s2)
     a02:	0100                	.insn	2, 0x0100
     a04:	0105                	.insn	2, 0x0105
     a06:	00090103          	lb	sp,0(s2)
     a0a:	0100                	.insn	2, 0x0100
     a0c:	0009                	.insn	2, 0x0009
     a0e:	0000                	.insn	2, 0x
     a10:	0101                	.insn	2, 0x0101
     a12:	1c05                	.insn	2, 0x1c05
     a14:	0500                	.insn	2, 0x0500
     a16:	5c02                	.insn	2, 0x5c02
     a18:	0005                	.insn	2, 0x0005
     a1a:	0300                	.insn	2, 0x0300
     a1c:	00da                	.insn	2, 0x00da
     a1e:	0501                	.insn	2, 0x0501
     a20:	031e                	.insn	2, 0x031e
     a22:	0900                	.insn	2, 0x0900
     a24:	0000                	.insn	2, 0x
     a26:	0301                	.insn	2, 0x0301
     a28:	0900                	.insn	2, 0x0900
     a2a:	0000                	.insn	2, 0x
     a2c:	0301                	.insn	2, 0x0301
     a2e:	0900                	.insn	2, 0x0900
     a30:	0000                	.insn	2, 0x
     a32:	0301                	.insn	2, 0x0301
     a34:	0900                	.insn	2, 0x0900
     a36:	0008                	.insn	2, 0x0008
     a38:	0501                	.insn	2, 0x0501
     a3a:	063d                	.insn	2, 0x063d
     a3c:	00090003          	lb	zero,0(s2)
     a40:	0100                	.insn	2, 0x0100
     a42:	0409                	.insn	2, 0x0409
     a44:	0000                	.insn	2, 0x
     a46:	0101                	.insn	2, 0x0101
     a48:	1c05                	.insn	2, 0x1c05
     a4a:	0500                	.insn	2, 0x0500
     a4c:	6802                	.insn	2, 0x6802
     a4e:	0005                	.insn	2, 0x0005
     a50:	0300                	.insn	2, 0x0300
     a52:	050100db          	.insn	4, 0x050100db
     a56:	031e                	.insn	2, 0x031e
     a58:	0900                	.insn	2, 0x0900
     a5a:	0000                	.insn	2, 0x
     a5c:	0301                	.insn	2, 0x0301
     a5e:	0900                	.insn	2, 0x0900
     a60:	0000                	.insn	2, 0x
     a62:	0301                	.insn	2, 0x0301
     a64:	0900                	.insn	2, 0x0900
     a66:	0000                	.insn	2, 0x
     a68:	0301                	.insn	2, 0x0301
     a6a:	0900                	.insn	2, 0x0900
     a6c:	0008                	.insn	2, 0x0008
     a6e:	0501                	.insn	2, 0x0501
     a70:	0003063f 01000009 	.insn	8, 0x010000090003063f
     a78:	0409                	.insn	2, 0x0409
     a7a:	0000                	.insn	2, 0x
     a7c:	0101                	.insn	2, 0x0101
     a7e:	2a05                	.insn	2, 0x2a05
     a80:	0500                	.insn	2, 0x0500
     a82:	7402                	.insn	2, 0x7402
     a84:	0005                	.insn	2, 0x0005
     a86:	0300                	.insn	2, 0x0300
     a88:	00dd                	.insn	2, 0x00dd
     a8a:	0501                	.insn	2, 0x0501
     a8c:	032c                	.insn	2, 0x032c
     a8e:	0900                	.insn	2, 0x0900
     a90:	0000                	.insn	2, 0x
     a92:	0301                	.insn	2, 0x0301
     a94:	0900                	.insn	2, 0x0900
     a96:	0000                	.insn	2, 0x
     a98:	0301                	.insn	2, 0x0301
     a9a:	0900                	.insn	2, 0x0900
     a9c:	0000                	.insn	2, 0x
     a9e:	0301                	.insn	2, 0x0301
     aa0:	0900                	.insn	2, 0x0900
     aa2:	0008                	.insn	2, 0x0008
     aa4:	0501                	.insn	2, 0x0501
     aa6:	0644                	.insn	2, 0x0644
     aa8:	00090003          	lb	zero,0(s2)
     aac:	0100                	.insn	2, 0x0100
     aae:	0409                	.insn	2, 0x0409
     ab0:	0000                	.insn	2, 0x
     ab2:	0101                	.insn	2, 0x0101
     ab4:	2a05                	.insn	2, 0x2a05
     ab6:	0500                	.insn	2, 0x0500
     ab8:	0002                	.insn	2, 0x0002
     aba:	0000                	.insn	2, 0x
     abc:	0300                	.insn	2, 0x0300
     abe:	00de                	.insn	2, 0x00de
     ac0:	0501                	.insn	2, 0x0501
     ac2:	032c                	.insn	2, 0x032c
     ac4:	0900                	.insn	2, 0x0900
     ac6:	0000                	.insn	2, 0x
     ac8:	0301                	.insn	2, 0x0301
     aca:	0900                	.insn	2, 0x0900
     acc:	0000                	.insn	2, 0x
     ace:	0301                	.insn	2, 0x0301
     ad0:	0900                	.insn	2, 0x0900
     ad2:	0000                	.insn	2, 0x
     ad4:	0301                	.insn	2, 0x0301
     ad6:	0900                	.insn	2, 0x0900
     ad8:	0000                	.insn	2, 0x
     ada:	0501                	.insn	2, 0x0501
     adc:	0644                	.insn	2, 0x0644
     ade:	00090003          	lb	zero,0(s2)
     ae2:	0100                	.insn	2, 0x0100
     ae4:	0009                	.insn	2, 0x0009
     ae6:	0000                	.insn	2, 0x
     ae8:	0101                	.insn	2, 0x0101
     aea:	2a05                	.insn	2, 0x2a05
     aec:	0500                	.insn	2, 0x0500
     aee:	0002                	.insn	2, 0x0002
     af0:	0000                	.insn	2, 0x
     af2:	0300                	.insn	2, 0x0300
     af4:	00df 0501 032c      	.insn	6, 0x032c050100df
     afa:	0900                	.insn	2, 0x0900
     afc:	0000                	.insn	2, 0x
     afe:	0301                	.insn	2, 0x0301
     b00:	0900                	.insn	2, 0x0900
     b02:	0000                	.insn	2, 0x
     b04:	0301                	.insn	2, 0x0301
     b06:	0900                	.insn	2, 0x0900
     b08:	0000                	.insn	2, 0x
     b0a:	0301                	.insn	2, 0x0301
     b0c:	0900                	.insn	2, 0x0900
     b0e:	0000                	.insn	2, 0x
     b10:	0501                	.insn	2, 0x0501
     b12:	0644                	.insn	2, 0x0644
     b14:	00090003          	lb	zero,0(s2)
     b18:	0100                	.insn	2, 0x0100
     b1a:	0009                	.insn	2, 0x0009
     b1c:	0000                	.insn	2, 0x
     b1e:	0101                	.insn	2, 0x0101
     b20:	0105                	.insn	2, 0x0105
     b22:	0500                	.insn	2, 0x0500
     b24:	8002                	.insn	2, 0x8002
     b26:	0005                	.insn	2, 0x0005
     b28:	0300                	.insn	2, 0x0300
     b2a:	00e5                	.insn	2, 0x00e5
     b2c:	0501                	.insn	2, 0x0501
     b2e:	0305                	.insn	2, 0x0305
     b30:	0901                	.insn	2, 0x0901
     b32:	0000                	.insn	2, 0x
     b34:	0501                	.insn	2, 0x0501
     b36:	060e                	.insn	2, 0x060e
     b38:	00090003          	lb	zero,0(s2)
     b3c:	0100                	.insn	2, 0x0100
     b3e:	0505                	.insn	2, 0x0505
     b40:	0306                	.insn	2, 0x0306
     b42:	0902                	.insn	2, 0x0902
     b44:	0004                	.insn	2, 0x0004
     b46:	0501                	.insn	2, 0x0501
     b48:	0601                	.insn	2, 0x0601
     b4a:	00097d03          	.insn	4, 0x00097d03
     b4e:	0100                	.insn	2, 0x0100
     b50:	0805                	.insn	2, 0x0805
     b52:	04090303          	lb	t1,64(s2)
     b56:	0100                	.insn	2, 0x0100
     b58:	0905                	.insn	2, 0x0905
     b5a:	0306                	.insn	2, 0x0306
     b5c:	0901                	.insn	2, 0x0901
     b5e:	0004                	.insn	2, 0x0004
     b60:	0501                	.insn	2, 0x0501
     b62:	0612                	.insn	2, 0x0612
     b64:	00090003          	lb	zero,0(s2)
     b68:	0100                	.insn	2, 0x0100
     b6a:	0905                	.insn	2, 0x0905
     b6c:	0306                	.insn	2, 0x0306
     b6e:	0901                	.insn	2, 0x0901
     b70:	0008                	.insn	2, 0x0008
     b72:	0501                	.insn	2, 0x0501
     b74:	0601                	.insn	2, 0x0601
     b76:	08097b03          	.insn	4, 0x08097b03
     b7a:	0100                	.insn	2, 0x0100
     b7c:	0905                	.insn	2, 0x0905
     b7e:	0c090503          	lb	a0,192(s2)
     b82:	0100                	.insn	2, 0x0100
     b84:	0d05                	.insn	2, 0x0d05
     b86:	0306                	.insn	2, 0x0306
     b88:	0915                	.insn	2, 0x0915
     b8a:	0010                	.insn	2, 0x0010
     b8c:	0301                	.insn	2, 0x0301
     b8e:	096d                	.insn	2, 0x096d
     b90:	000c                	.insn	2, 0x000c
     b92:	0501                	.insn	2, 0x0501
     b94:	061c                	.insn	2, 0x061c
     b96:	00090003          	lb	zero,0(s2)
     b9a:	0100                	.insn	2, 0x0100
     b9c:	2c05                	.insn	2, 0x2c05
     b9e:	04090003          	lb	zero,64(s2)
     ba2:	0100                	.insn	2, 0x0100
     ba4:	0200                	.insn	2, 0x0200
     ba6:	0204                	.insn	2, 0x0204
     ba8:	04090003          	lb	zero,64(s2)
     bac:	0100                	.insn	2, 0x0100
     bae:	1005                	.insn	2, 0x1005
     bb0:	0200                	.insn	2, 0x0200
     bb2:	0404                	.insn	2, 0x0404
     bb4:	04091a03          	lh	s4,64(s2)
     bb8:	0100                	.insn	2, 0x0100
     bba:	0d05                	.insn	2, 0x0d05
     bbc:	0306                	.insn	2, 0x0306
     bbe:	0969                	.insn	2, 0x0969
     bc0:	0008                	.insn	2, 0x0008
     bc2:	0501                	.insn	2, 0x0501
     bc4:	0003061b          	.insn	4, 0x0003061b
     bc8:	0009                	.insn	2, 0x0009
     bca:	0100                	.insn	2, 0x0100
     bcc:	2a05                	.insn	2, 0x2a05
     bce:	04090003          	lb	zero,64(s2)
     bd2:	0100                	.insn	2, 0x0100
     bd4:	0200                	.insn	2, 0x0200
     bd6:	0204                	.insn	2, 0x0204
     bd8:	04090003          	lb	zero,64(s2)
     bdc:	0100                	.insn	2, 0x0100
     bde:	0105                	.insn	2, 0x0105
     be0:	04091903          	lh	s2,64(s2)
     be4:	0100                	.insn	2, 0x0100
     be6:	2a05                	.insn	2, 0x2a05
     be8:	0200                	.insn	2, 0x0200
     bea:	0404                	.insn	2, 0x0404
     bec:	08096703          	.insn	4, 0x08096703
     bf0:	0100                	.insn	2, 0x0100
     bf2:	0105                	.insn	2, 0x0105
     bf4:	04091903          	lh	s2,64(s2)
     bf8:	0100                	.insn	2, 0x0100
     bfa:	1005                	.insn	2, 0x1005
     bfc:	0200                	.insn	2, 0x0200
     bfe:	0404                	.insn	2, 0x0404
     c00:	04097e03          	.insn	4, 0x04097e03
     c04:	0100                	.insn	2, 0x0100
     c06:	0d05                	.insn	2, 0x0d05
     c08:	0306                	.insn	2, 0x0306
     c0a:	096e                	.insn	2, 0x096e
     c0c:	0004                	.insn	2, 0x0004
     c0e:	0401                	.insn	2, 0x0401
     c10:	0504                	.insn	2, 0x0504
     c12:	0305                	.insn	2, 0x0305
     c14:	095e                	.insn	2, 0x095e
     c16:	0000                	.insn	2, 0x
     c18:	0401                	.insn	2, 0x0401
     c1a:	09770303          	lb	t1,151(a4)
     c1e:	0000                	.insn	2, 0x
     c20:	0501                	.insn	2, 0x0501
     c22:	060c                	.insn	2, 0x060c
     c24:	00090003          	lb	zero,0(s2)
     c28:	0100                	.insn	2, 0x0100
     c2a:	0104                	.insn	2, 0x0104
     c2c:	0d05                	.insn	2, 0x0d05
     c2e:	0306                	.insn	2, 0x0306
     c30:	092c                	.insn	2, 0x092c
     c32:	000c                	.insn	2, 0x000c
     c34:	0501                	.insn	2, 0x0501
     c36:	0610                	.insn	2, 0x0610
     c38:	00090003          	lb	zero,0(s2)
     c3c:	0100                	.insn	2, 0x0100
     c3e:	1105                	.insn	2, 0x1105
     c40:	0306                	.insn	2, 0x0306
     c42:	0901                	.insn	2, 0x0901
     c44:	0004                	.insn	2, 0x0004
     c46:	0501                	.insn	2, 0x0501
     c48:	0614                	.insn	2, 0x0614
     c4a:	00090003          	lb	zero,0(s2)
     c4e:	0100                	.insn	2, 0x0100
     c50:	3c05                	.insn	2, 0x3c05
     c52:	0200                	.insn	2, 0x0200
     c54:	0104                	.insn	2, 0x0104
     c56:	04090003          	lb	zero,64(s2)
     c5a:	0100                	.insn	2, 0x0100
     c5c:	2d05                	.insn	2, 0x2d05
     c5e:	0200                	.insn	2, 0x0200
     c60:	0104                	.insn	2, 0x0104
     c62:	14090003          	lb	zero,320(s2)
     c66:	0100                	.insn	2, 0x0100
     c68:	1505                	.insn	2, 0x1505
     c6a:	0306                	.insn	2, 0x0306
     c6c:	0901                	.insn	2, 0x0901
     c6e:	0004                	.insn	2, 0x0004
     c70:	0501                	.insn	2, 0x0501
     c72:	0311                	.insn	2, 0x0311
     c74:	000c0903          	lb	s2,0(s8)
     c78:	0401                	.insn	2, 0x0401
     c7a:	0504                	.insn	2, 0x0504
     c7c:	0305                	.insn	2, 0x0305
     c7e:	095d                	.insn	2, 0x095d
     c80:	0000                	.insn	2, 0x
     c82:	0401                	.insn	2, 0x0401
     c84:	096e0303          	lb	t1,150(t3) # 3f00245c <__stack_top+0x1efc245c>
     c88:	0000                	.insn	2, 0x
     c8a:	0501                	.insn	2, 0x0501
     c8c:	0620                	.insn	2, 0x0620
     c8e:	00090003          	lb	zero,0(s2)
     c92:	0100                	.insn	2, 0x0100
     c94:	0104                	.insn	2, 0x0104
     c96:	0105                	.insn	2, 0x0105
     c98:	0900c303          	lbu	t1,144(ra)
     c9c:	0008                	.insn	2, 0x0008
     c9e:	0501                	.insn	2, 0x0501
     ca0:	0615                	.insn	2, 0x0615
     ca2:	10097103          	.insn	4, 0x10097103
     ca6:	0100                	.insn	2, 0x0100
     ca8:	0505                	.insn	2, 0x0505
     caa:	00094a03          	lbu	s4,0(s2)
     cae:	0100                	.insn	2, 0x0100
     cb0:	0c090103          	lb	sp,192(s2)
     cb4:	0100                	.insn	2, 0x0100
     cb6:	0f05                	.insn	2, 0x0f05
     cb8:	00090003          	lb	zero,0(s2)
     cbc:	0100                	.insn	2, 0x0100
     cbe:	0505                	.insn	2, 0x0505
     cc0:	00090003          	lb	zero,0(s2)
     cc4:	0100                	.insn	2, 0x0100
     cc6:	0905                	.insn	2, 0x0905
     cc8:	04093f03          	.insn	4, 0x04093f03
     ccc:	0100                	.insn	2, 0x0100
     cce:	00090103          	lb	sp,0(s2)
     cd2:	0100                	.insn	2, 0x0100
     cd4:	3d05                	.insn	2, 0x3d05
     cd6:	0306                	.insn	2, 0x0306
     cd8:	0901                	.insn	2, 0x0901
     cda:	0000                	.insn	2, 0x
     cdc:	0001                	.insn	2, 0x0001
     cde:	0402                	.insn	2, 0x0402
     ce0:	0301                	.insn	2, 0x0301
     ce2:	0900                	.insn	2, 0x0900
     ce4:	0008                	.insn	2, 0x0008
     ce6:	0501                	.insn	2, 0x0501
     ce8:	0609                	.insn	2, 0x0609
     cea:	14090103          	lb	sp,320(s2)
     cee:	0100                	.insn	2, 0x0100
     cf0:	1005                	.insn	2, 0x1005
     cf2:	0306                	.insn	2, 0x0306
     cf4:	0900                	.insn	2, 0x0900
     cf6:	0000                	.insn	2, 0x
     cf8:	0001                	.insn	2, 0x0001
     cfa:	0402                	.insn	2, 0x0402
     cfc:	0302                	.insn	2, 0x0302
     cfe:	0900                	.insn	2, 0x0900
     d00:	0004                	.insn	2, 0x0004
     d02:	0901                	.insn	2, 0x0901
     d04:	0008                	.insn	2, 0x0008
     d06:	0100                	.insn	2, 0x0100
     d08:	0501                	.insn	2, 0x0501
     d0a:	0001                	.insn	2, 0x0001
     d0c:	0205                	.insn	2, 0x0205
     d0e:	0680                	.insn	2, 0x0680
     d10:	0000                	.insn	2, 0x
     d12:	01018f03          	lb	t5,16(gp) # 20000814 <__global_pointer$+0x10>
     d16:	0505                	.insn	2, 0x0505
     d18:	00090303          	lb	t1,0(s2)
     d1c:	0100                	.insn	2, 0x0100
     d1e:	00090003          	lb	zero,0(s2)
     d22:	0100                	.insn	2, 0x0100
     d24:	00090003          	lb	zero,0(s2)
     d28:	0100                	.insn	2, 0x0100
     d2a:	08090003          	lb	zero,128(s2)
     d2e:	0100                	.insn	2, 0x0100
     d30:	00090403          	lb	s0,0(s2)
     d34:	0100                	.insn	2, 0x0100
     d36:	00090003          	lb	zero,0(s2)
     d3a:	0100                	.insn	2, 0x0100
     d3c:	00090003          	lb	zero,0(s2)
     d40:	0100                	.insn	2, 0x0100
     d42:	0c090003          	lb	zero,192(s2)
     d46:	0100                	.insn	2, 0x0100
     d48:	00090403          	lb	s0,0(s2)
     d4c:	0100                	.insn	2, 0x0100
     d4e:	00090003          	lb	zero,0(s2)
     d52:	0100                	.insn	2, 0x0100
     d54:	00090003          	lb	zero,0(s2)
     d58:	0100                	.insn	2, 0x0100
     d5a:	08090003          	lb	zero,128(s2)
     d5e:	0100                	.insn	2, 0x0100
     d60:	00090403          	lb	s0,0(s2)
     d64:	0100                	.insn	2, 0x0100
     d66:	0404                	.insn	2, 0x0404
     d68:	097fb403          	.insn	4, 0x097fb403
     d6c:	0000                	.insn	2, 0x
     d6e:	0401                	.insn	2, 0x0401
     d70:	09770303          	lb	t1,151(a4)
     d74:	0000                	.insn	2, 0x
     d76:	0501                	.insn	2, 0x0501
     d78:	060c                	.insn	2, 0x060c
     d7a:	00090003          	lb	zero,0(s2)
     d7e:	0100                	.insn	2, 0x0100
     d80:	0104                	.insn	2, 0x0104
     d82:	0505                	.insn	2, 0x0505
     d84:	0306                	.insn	2, 0x0306
     d86:	00d6                	.insn	2, 0x00d6
     d88:	0c09                	.insn	2, 0x0c09
     d8a:	0100                	.insn	2, 0x0100
     d8c:	0805                	.insn	2, 0x0805
     d8e:	0306                	.insn	2, 0x0306
     d90:	0900                	.insn	2, 0x0900
     d92:	0000                	.insn	2, 0x
     d94:	0501                	.insn	2, 0x0501
     d96:	000e                	.insn	2, 0x000e
     d98:	0402                	.insn	2, 0x0402
     d9a:	0601                	.insn	2, 0x0601
     d9c:	04090003          	lb	zero,64(s2)
     da0:	0100                	.insn	2, 0x0100
     da2:	0404                	.insn	2, 0x0404
     da4:	0505                	.insn	2, 0x0505
     da6:	097fb803          	.insn	4, 0x097fb803
     daa:	0000                	.insn	2, 0x
     dac:	0401                	.insn	2, 0x0401
     dae:	096e0303          	lb	t1,150(t3)
     db2:	0000                	.insn	2, 0x
     db4:	0501                	.insn	2, 0x0501
     db6:	0620                	.insn	2, 0x0620
     db8:	00090003          	lb	zero,0(s2)
     dbc:	0100                	.insn	2, 0x0100
     dbe:	0104                	.insn	2, 0x0104
     dc0:	0505                	.insn	2, 0x0505
     dc2:	0306                	.insn	2, 0x0306
     dc4:	00dd                	.insn	2, 0x00dd
     dc6:	0409                	.insn	2, 0x0409
     dc8:	0100                	.insn	2, 0x0100
     dca:	0304                	.insn	2, 0x0304
     dcc:	097fa303          	lw	t1,151(t6)
     dd0:	0000                	.insn	2, 0x
     dd2:	0501                	.insn	2, 0x0501
     dd4:	0620                	.insn	2, 0x0620
     dd6:	00090003          	lb	zero,0(s2)
     dda:	0100                	.insn	2, 0x0100
     ddc:	0104                	.insn	2, 0x0104
     dde:	0505                	.insn	2, 0x0505
     de0:	0306                	.insn	2, 0x0306
     de2:	00de                	.insn	2, 0x00de
     de4:	0c09                	.insn	2, 0x0c09
     de6:	0100                	.insn	2, 0x0100
     de8:	0304                	.insn	2, 0x0304
     dea:	097fa203          	lw	tp,151(t6)
     dee:	0000                	.insn	2, 0x
     df0:	0501                	.insn	2, 0x0501
     df2:	0620                	.insn	2, 0x0620
     df4:	00090003          	lb	zero,0(s2)
     df8:	0100                	.insn	2, 0x0100
     dfa:	0104                	.insn	2, 0x0104
     dfc:	0505                	.insn	2, 0x0505
     dfe:	0306                	.insn	2, 0x0306
     e00:	00e1                	.insn	2, 0x00e1
     e02:	0809                	.insn	2, 0x0809
     e04:	0100                	.insn	2, 0x0100
     e06:	0204                	.insn	2, 0x0204
     e08:	2f05                	.insn	2, 0x2f05
     e0a:	097fb503          	.insn	4, 0x097fb503
     e0e:	0000                	.insn	2, 0x
     e10:	0401                	.insn	2, 0x0401
     e12:	03050503          	lb	a0,48(a0)
     e16:	096a                	.insn	2, 0x096a
     e18:	0000                	.insn	2, 0x
     e1a:	0501                	.insn	2, 0x0501
     e1c:	0620                	.insn	2, 0x0620
     e1e:	00090003          	lb	zero,0(s2)
     e22:	0100                	.insn	2, 0x0100
     e24:	0104                	.insn	2, 0x0104
     e26:	0105                	.insn	2, 0x0105
     e28:	0900e203          	.insn	4, 0x0900e203
     e2c:	0008                	.insn	2, 0x0008
     e2e:	0901                	.insn	2, 0x0901
     e30:	0004                	.insn	2, 0x0004
     e32:	0100                	.insn	2, 0x0100
     e34:	7801                	.insn	2, 0x7801
     e36:	0006                	.insn	2, 0x0006
     e38:	0500                	.insn	2, 0x0500
     e3a:	0400                	.insn	2, 0x0400
     e3c:	4500                	.insn	2, 0x4500
     e3e:	0000                	.insn	2, 0x
     e40:	0100                	.insn	2, 0x0100
     e42:	0101                	.insn	2, 0x0101
     e44:	000d0efb          	.insn	4, 0x000d0efb
     e48:	0101                	.insn	2, 0x0101
     e4a:	0101                	.insn	2, 0x0101
     e4c:	0000                	.insn	2, 0x
     e4e:	0100                	.insn	2, 0x0100
     e50:	0000                	.insn	2, 0x
     e52:	0101                	.insn	2, 0x0101
     e54:	1f01                	.insn	2, 0x1f01
     e56:	0004                	.insn	2, 0x0004
     e58:	0000                	.insn	2, 0x
     e5a:	3f00                	.insn	2, 0x3f00
     e5c:	0001                	.insn	2, 0x0001
     e5e:	5900                	.insn	2, 0x5900
     e60:	0000                	.insn	2, 0x
     e62:	8100                	.insn	2, 0x8100
     e64:	0000                	.insn	2, 0x
     e66:	0200                	.insn	2, 0x0200
     e68:	1f01                	.insn	2, 0x1f01
     e6a:	0f02                	.insn	2, 0x0f02
     e6c:	8605                	.insn	2, 0x8605
     e6e:	0001                	.insn	2, 0x0001
     e70:	0100                	.insn	2, 0x0100
     e72:	0186                	.insn	2, 0x0186
     e74:	0000                	.insn	2, 0x
     e76:	b901                	.insn	2, 0xb901
     e78:	0000                	.insn	2, 0x
     e7a:	0200                	.insn	2, 0x0200
     e7c:	018d                	.insn	2, 0x018d
     e7e:	0000                	.insn	2, 0x
     e80:	0000bf03          	.insn	4, 0xbf03
     e84:	0300                	.insn	2, 0x0300
     e86:	0105                	.insn	2, 0x0105
     e88:	0500                	.insn	2, 0x0500
     e8a:	d002                	.insn	2, 0xd002
     e8c:	0006                	.insn	2, 0x0006
     e8e:	0300                	.insn	2, 0x0300
     e90:	0505012b          	.insn	4, 0x0505012b
     e94:	00090103          	lb	sp,0(s2)
     e98:	0100                	.insn	2, 0x0100
     e9a:	00090103          	lb	sp,0(s2)
     e9e:	0100                	.insn	2, 0x0100
     ea0:	00090103          	lb	sp,0(s2)
     ea4:	0100                	.insn	2, 0x0100
     ea6:	0105                	.insn	2, 0x0105
     ea8:	0306                	.insn	2, 0x0306
     eaa:	097d                	.insn	2, 0x097d
     eac:	0000                	.insn	2, 0x
     eae:	0501                	.insn	2, 0x0501
     eb0:	0334                	.insn	2, 0x0334
     eb2:	00040903          	lb	s2,0(s0)
     eb6:	0001                	.insn	2, 0x0001
     eb8:	0402                	.insn	2, 0x0402
     eba:	0301                	.insn	2, 0x0301
     ebc:	0900                	.insn	2, 0x0900
     ebe:	0004                	.insn	2, 0x0004
     ec0:	0501                	.insn	2, 0x0501
     ec2:	0605                	.insn	2, 0x0605
     ec4:	08090403          	lb	s0,128(s2)
     ec8:	0100                	.insn	2, 0x0100
     eca:	00090103          	lb	sp,0(s2)
     ece:	0100                	.insn	2, 0x0100
     ed0:	00090203          	lb	tp,0(s2)
     ed4:	0100                	.insn	2, 0x0100
     ed6:	0805                	.insn	2, 0x0805
     ed8:	0306                	.insn	2, 0x0306
     eda:	0900                	.insn	2, 0x0900
     edc:	0000                	.insn	2, 0x
     ede:	0501                	.insn	2, 0x0501
     ee0:	0609                	.insn	2, 0x0609
     ee2:	04090103          	lb	sp,64(s2)
     ee6:	0100                	.insn	2, 0x0100
     ee8:	1205                	.insn	2, 0x1205
     eea:	0306                	.insn	2, 0x0306
     eec:	0900                	.insn	2, 0x0900
     eee:	0000                	.insn	2, 0x
     ef0:	0501                	.insn	2, 0x0501
     ef2:	030e                	.insn	2, 0x030e
     ef4:	0900                	.insn	2, 0x0900
     ef6:	0008                	.insn	2, 0x0008
     ef8:	0501                	.insn	2, 0x0501
     efa:	0309                	.insn	2, 0x0309
     efc:	097d                	.insn	2, 0x097d
     efe:	0004                	.insn	2, 0x0004
     f00:	0501                	.insn	2, 0x0501
     f02:	000e                	.insn	2, 0x000e
     f04:	0402                	.insn	2, 0x0402
     f06:	0601                	.insn	2, 0x0601
     f08:	04090b03          	lb	s6,64(s2)
     f0c:	0100                	.insn	2, 0x0100
     f0e:	0204                	.insn	2, 0x0204
     f10:	2005                	.insn	2, 0x2005
     f12:	0306                	.insn	2, 0x0306
     f14:	00140907          	.insn	4, 0x00140907
     f18:	0401                	.insn	2, 0x0401
     f1a:	0501                	.insn	2, 0x0501
     f1c:	0310                	.insn	2, 0x0310
     f1e:	097d                	.insn	2, 0x097d
     f20:	0004                	.insn	2, 0x0004
     f22:	0601                	.insn	2, 0x0601
     f24:	04090003          	lb	zero,64(s2)
     f28:	0100                	.insn	2, 0x0100
     f2a:	0d05                	.insn	2, 0x0d05
     f2c:	0306                	.insn	2, 0x0306
     f2e:	0900                	.insn	2, 0x0900
     f30:	0000                	.insn	2, 0x
     f32:	0501                	.insn	2, 0x0501
     f34:	0310                	.insn	2, 0x0310
     f36:	0900                	.insn	2, 0x0900
     f38:	0004                	.insn	2, 0x0004
     f3a:	0501                	.insn	2, 0x0501
     f3c:	0301                	.insn	2, 0x0301
     f3e:	00040903          	lb	s2,0(s0)
     f42:	0501                	.insn	2, 0x0501
     f44:	0034                	.insn	2, 0x0034
     f46:	0402                	.insn	2, 0x0402
     f48:	0302                	.insn	2, 0x0302
     f4a:	0969                	.insn	2, 0x0969
     f4c:	0008                	.insn	2, 0x0008
     f4e:	0501                	.insn	2, 0x0501
     f50:	0309                	.insn	2, 0x0309
     f52:	0905                	.insn	2, 0x0905
     f54:	0010                	.insn	2, 0x0010
     f56:	0501                	.insn	2, 0x0501
     f58:	0019                	.insn	2, 0x0019
     f5a:	0402                	.insn	2, 0x0402
     f5c:	0301                	.insn	2, 0x0301
     f5e:	0905                	.insn	2, 0x0905
     f60:	0004                	.insn	2, 0x0004
     f62:	0501                	.insn	2, 0x0501
     f64:	060d                	.insn	2, 0x060d
     f66:	04090103          	lb	sp,64(s2)
     f6a:	0100                	.insn	2, 0x0100
     f6c:	2305                	.insn	2, 0x2305
     f6e:	0306                	.insn	2, 0x0306
     f70:	0900                	.insn	2, 0x0900
     f72:	0000                	.insn	2, 0x
     f74:	0501                	.insn	2, 0x0501
     f76:	0312                	.insn	2, 0x0312
     f78:	0900                	.insn	2, 0x0900
     f7a:	0004                	.insn	2, 0x0004
     f7c:	0501                	.insn	2, 0x0501
     f7e:	031e                	.insn	2, 0x031e
     f80:	0900                	.insn	2, 0x0900
     f82:	0004                	.insn	2, 0x0004
     f84:	0501                	.insn	2, 0x0501
     f86:	0316                	.insn	2, 0x0316
     f88:	0900                	.insn	2, 0x0900
     f8a:	0004                	.insn	2, 0x0004
     f8c:	0501                	.insn	2, 0x0501
     f8e:	060d                	.insn	2, 0x060d
     f90:	08090103          	lb	sp,128(s2)
     f94:	0100                	.insn	2, 0x0100
     f96:	1105                	.insn	2, 0x1105
     f98:	0306                	.insn	2, 0x0306
     f9a:	0900                	.insn	2, 0x0900
     f9c:	0004                	.insn	2, 0x0004
     f9e:	0501                	.insn	2, 0x0501
     fa0:	0619                	.insn	2, 0x0619
     fa2:	04097e03          	.insn	4, 0x04097e03
     fa6:	0100                	.insn	2, 0x0100
     fa8:	0200                	.insn	2, 0x0200
     faa:	0104                	.insn	2, 0x0104
     fac:	0306                	.insn	2, 0x0306
     fae:	0900                	.insn	2, 0x0900
     fb0:	0004                	.insn	2, 0x0004
     fb2:	0501                	.insn	2, 0x0501
     fb4:	0609                	.insn	2, 0x0609
     fb6:	0c090703          	lb	a4,192(s2)
     fba:	0100                	.insn	2, 0x0100
     fbc:	1005                	.insn	2, 0x1005
     fbe:	0306                	.insn	2, 0x0306
     fc0:	0900                	.insn	2, 0x0900
     fc2:	0000                	.insn	2, 0x
     fc4:	0501                	.insn	2, 0x0501
     fc6:	001c                	.insn	2, 0x001c
     fc8:	0402                	.insn	2, 0x0402
     fca:	0602                	.insn	2, 0x0602
     fcc:	0c097f03          	.insn	4, 0x0c097f03
     fd0:	0100                	.insn	2, 0x0100
     fd2:	0905                	.insn	2, 0x0905
     fd4:	08090503          	lb	a0,128(s2)
     fd8:	0100                	.insn	2, 0x0100
     fda:	0505                	.insn	2, 0x0505
     fdc:	00094d03          	lbu	s10,0(s2)
     fe0:	0100                	.insn	2, 0x0100
     fe2:	0905                	.insn	2, 0x0905
     fe4:	0306                	.insn	2, 0x0306
     fe6:	00000933          	add	s2,zero,zero
     fea:	0501                	.insn	2, 0x0501
     fec:	0305                	.insn	2, 0x0305
     fee:	094d                	.insn	2, 0x094d
     ff0:	0008                	.insn	2, 0x0008
     ff2:	0401                	.insn	2, 0x0401
     ff4:	0602                	.insn	2, 0x0602
     ff6:	04093503          	.insn	4, 0x04093503
     ffa:	0100                	.insn	2, 0x0100
     ffc:	2005                	.insn	2, 0x2005
     ffe:	0306                	.insn	2, 0x0306
    1000:	0900                	.insn	2, 0x0900
    1002:	0000                	.insn	2, 0x
    1004:	0401                	.insn	2, 0x0401
    1006:	0501                	.insn	2, 0x0501
    1008:	0301                	.insn	2, 0x0301
    100a:	094c                	.insn	2, 0x094c
    100c:	0004                	.insn	2, 0x0004
    100e:	0901                	.insn	2, 0x0901
    1010:	0004                	.insn	2, 0x0004
    1012:	0100                	.insn	2, 0x0100
    1014:	0501                	.insn	2, 0x0501
    1016:	0001                	.insn	2, 0x0001
    1018:	0205                	.insn	2, 0x0205
    101a:	0000                	.insn	2, 0x
    101c:	0000                	.insn	2, 0x
    101e:	05010f03          	lb	t5,80(sp)
    1022:	0305                	.insn	2, 0x0305
    1024:	0901                	.insn	2, 0x0901
    1026:	0000                	.insn	2, 0x
    1028:	0401                	.insn	2, 0x0401
    102a:	0302                	.insn	2, 0x0302
    102c:	0935                	.insn	2, 0x0935
    102e:	0000                	.insn	2, 0x
    1030:	0501                	.insn	2, 0x0501
    1032:	0620                	.insn	2, 0x0620
    1034:	00090003          	lb	zero,0(s2)
    1038:	0100                	.insn	2, 0x0100
    103a:	0104                	.insn	2, 0x0104
    103c:	0105                	.insn	2, 0x0105
    103e:	00094c03          	lbu	s8,0(s2)
    1042:	0100                	.insn	2, 0x0100
    1044:	0009                	.insn	2, 0x0009
    1046:	0000                	.insn	2, 0x
    1048:	0101                	.insn	2, 0x0101
    104a:	0105                	.insn	2, 0x0105
    104c:	0500                	.insn	2, 0x0500
    104e:	8c02                	.insn	2, 0x8c02
    1050:	03000007          	.insn	4, 0x03000007
    1054:	0114                	.insn	2, 0x0114
    1056:	0505                	.insn	2, 0x0505
    1058:	00090103          	lb	sp,0(s2)
    105c:	0100                	.insn	2, 0x0100
    105e:	0204                	.insn	2, 0x0204
    1060:	2005                	.insn	2, 0x2005
    1062:	0306                	.insn	2, 0x0306
    1064:	0930                	.insn	2, 0x0930
    1066:	0000                	.insn	2, 0x
    1068:	0401                	.insn	2, 0x0401
    106a:	0501                	.insn	2, 0x0501
    106c:	060c                	.insn	2, 0x060c
    106e:	04095003          	lhu	zero,64(s2)
    1072:	0100                	.insn	2, 0x0100
    1074:	0105                	.insn	2, 0x0105
    1076:	0306                	.insn	2, 0x0306
    1078:	00080903          	lb	s2,0(a6)
    107c:	0501                	.insn	2, 0x0501
    107e:	0609                	.insn	2, 0x0609
    1080:	04097e03          	.insn	4, 0x04097e03
    1084:	0100                	.insn	2, 0x0100
    1086:	1505                	.insn	2, 0x1505
    1088:	0306                	.insn	2, 0x0306
    108a:	0900                	.insn	2, 0x0900
    108c:	0000                	.insn	2, 0x
    108e:	0501                	.insn	2, 0x0501
    1090:	0605                	.insn	2, 0x0605
    1092:	04097a03          	.insn	4, 0x04097a03
    1096:	0100                	.insn	2, 0x0100
    1098:	0204                	.insn	2, 0x0204
    109a:	00093503          	.insn	4, 0x00093503
    109e:	0100                	.insn	2, 0x0100
    10a0:	2005                	.insn	2, 0x2005
    10a2:	0306                	.insn	2, 0x0306
    10a4:	0900                	.insn	2, 0x0900
    10a6:	0000                	.insn	2, 0x
    10a8:	0401                	.insn	2, 0x0401
    10aa:	0501                	.insn	2, 0x0501
    10ac:	0301                	.insn	2, 0x0301
    10ae:	094c                	.insn	2, 0x094c
    10b0:	0004                	.insn	2, 0x0004
    10b2:	0901                	.insn	2, 0x0901
    10b4:	0004                	.insn	2, 0x0004
    10b6:	0100                	.insn	2, 0x0100
    10b8:	0501                	.insn	2, 0x0501
    10ba:	0001                	.insn	2, 0x0001
    10bc:	0205                	.insn	2, 0x0205
    10be:	0000                	.insn	2, 0x
    10c0:	0000                	.insn	2, 0x
    10c2:	05011b03          	lh	s6,80(sp)
    10c6:	0305                	.insn	2, 0x0305
    10c8:	0901                	.insn	2, 0x0901
    10ca:	0000                	.insn	2, 0x
    10cc:	0401                	.insn	2, 0x0401
    10ce:	0302                	.insn	2, 0x0302
    10d0:	092d                	.insn	2, 0x092d
    10d2:	0000                	.insn	2, 0x
    10d4:	0501                	.insn	2, 0x0501
    10d6:	060c                	.insn	2, 0x060c
    10d8:	00090003          	lb	zero,0(s2)
    10dc:	0100                	.insn	2, 0x0100
    10de:	0104                	.insn	2, 0x0104
    10e0:	0505                	.insn	2, 0x0505
    10e2:	0306                	.insn	2, 0x0306
    10e4:	0954                	.insn	2, 0x0954
    10e6:	0000                	.insn	2, 0x
    10e8:	0501                	.insn	2, 0x0501
    10ea:	0610                	.insn	2, 0x0610
    10ec:	00090103          	lb	sp,0(s2)
    10f0:	0100                	.insn	2, 0x0100
    10f2:	0b05                	.insn	2, 0x0b05
    10f4:	00097f03          	.insn	4, 0x00097f03
    10f8:	0100                	.insn	2, 0x0100
    10fa:	0805                	.insn	2, 0x0805
    10fc:	00090003          	lb	zero,0(s2)
    1100:	0100                	.insn	2, 0x0100
    1102:	0505                	.insn	2, 0x0505
    1104:	0306                	.insn	2, 0x0306
    1106:	00000903          	lb	s2,0(zero) # 0 <_start>
    110a:	0501                	.insn	2, 0x0501
    110c:	060c                	.insn	2, 0x060c
    110e:	00090003          	lb	zero,0(s2)
    1112:	0100                	.insn	2, 0x0100
    1114:	0105                	.insn	2, 0x0105
    1116:	00090103          	lb	sp,0(s2)
    111a:	0100                	.insn	2, 0x0100
    111c:	0009                	.insn	2, 0x0009
    111e:	0000                	.insn	2, 0x
    1120:	0101                	.insn	2, 0x0101
    1122:	0105                	.insn	2, 0x0105
    1124:	0500                	.insn	2, 0x0500
    1126:	a802                	.insn	2, 0xa802
    1128:	03000007          	.insn	4, 0x03000007
    112c:	050100d3          	.insn	4, 0x050100d3
    1130:	0305                	.insn	2, 0x0305
    1132:	0901                	.insn	2, 0x0901
    1134:	0000                	.insn	2, 0x
    1136:	0301                	.insn	2, 0x0301
    1138:	0901                	.insn	2, 0x0901
    113a:	0000                	.insn	2, 0x
    113c:	0501                	.insn	2, 0x0501
    113e:	0601                	.insn	2, 0x0601
    1140:	00097e03          	.insn	4, 0x00097e03
    1144:	0100                	.insn	2, 0x0100
    1146:	0505                	.insn	2, 0x0505
    1148:	08090203          	lb	tp,128(s2)
    114c:	0100                	.insn	2, 0x0100
    114e:	0105                	.insn	2, 0x0105
    1150:	04097e03          	.insn	4, 0x04097e03
    1154:	0100                	.insn	2, 0x0100
    1156:	20090003          	lb	zero,512(s2)
    115a:	0100                	.insn	2, 0x0100
    115c:	0505                	.insn	2, 0x0505
    115e:	1c090203          	lb	tp,448(s2)
    1162:	0100                	.insn	2, 0x0100
    1164:	0306                	.insn	2, 0x0306
    1166:	0902                	.insn	2, 0x0902
    1168:	0004                	.insn	2, 0x0004
    116a:	0301                	.insn	2, 0x0301
    116c:	0901                	.insn	2, 0x0901
    116e:	0000                	.insn	2, 0x
    1170:	0301                	.insn	2, 0x0301
    1172:	0902                	.insn	2, 0x0902
    1174:	0000                	.insn	2, 0x
    1176:	0501                	.insn	2, 0x0501
    1178:	030a                	.insn	2, 0x030a
    117a:	0900                	.insn	2, 0x0900
    117c:	0000                	.insn	2, 0x
    117e:	0501                	.insn	2, 0x0501
    1180:	060c                	.insn	2, 0x060c
    1182:	00090103          	lb	sp,0(s2)
    1186:	0100                	.insn	2, 0x0100
    1188:	04090c03          	lb	s8,64(s2)
    118c:	0100                	.insn	2, 0x0100
    118e:	1a05                	.insn	2, 0x1a05
    1190:	04090403          	lb	s0,64(s2)
    1194:	0100                	.insn	2, 0x0100
    1196:	2305                	.insn	2, 0x2305
    1198:	04090103          	lb	sp,64(s2)
    119c:	0100                	.insn	2, 0x0100
    119e:	0905                	.insn	2, 0x0905
    11a0:	04090403          	lb	s0,64(s2)
    11a4:	0100                	.insn	2, 0x0100
    11a6:	1f05                	.insn	2, 0x1f05
    11a8:	0200                	.insn	2, 0x0200
    11aa:	0104                	.insn	2, 0x0104
    11ac:	0306                	.insn	2, 0x0306
    11ae:	096a                	.insn	2, 0x096a
    11b0:	0008                	.insn	2, 0x0008
    11b2:	0501                	.insn	2, 0x0501
    11b4:	0305                	.insn	2, 0x0305
    11b6:	0008093f 09010301 	.insn	8, 0x090103010008093f
    11be:	0000                	.insn	2, 0x
    11c0:	0501                	.insn	2, 0x0501
    11c2:	0601                	.insn	2, 0x0601
    11c4:	00090103          	lb	sp,0(s2)
    11c8:	0100                	.insn	2, 0x0100
    11ca:	0905                	.insn	2, 0x0905
    11cc:	0306                	.insn	2, 0x0306
    11ce:	0940                	.insn	2, 0x0940
    11d0:	002c                	.insn	2, 0x002c
    11d2:	0501                	.insn	2, 0x0501
    11d4:	060c                	.insn	2, 0x060c
    11d6:	00090003          	lb	zero,0(s2)
    11da:	0100                	.insn	2, 0x0100
    11dc:	0d05                	.insn	2, 0x0d05
    11de:	0306                	.insn	2, 0x0306
    11e0:	0919                	.insn	2, 0x0919
    11e2:	0004                	.insn	2, 0x0004
    11e4:	0501                	.insn	2, 0x0501
    11e6:	0305                	.insn	2, 0x0305
    11e8:	7f9c                	.insn	2, 0x7f9c
    11ea:	0009                	.insn	2, 0x0009
    11ec:	0100                	.insn	2, 0x0100
    11ee:	0204                	.insn	2, 0x0204
    11f0:	00093503          	.insn	4, 0x00093503
    11f4:	0100                	.insn	2, 0x0100
    11f6:	2005                	.insn	2, 0x2005
    11f8:	0306                	.insn	2, 0x0306
    11fa:	0900                	.insn	2, 0x0900
    11fc:	0000                	.insn	2, 0x
    11fe:	0401                	.insn	2, 0x0401
    1200:	0501                	.insn	2, 0x0501
    1202:	060d                	.insn	2, 0x060d
    1204:	08093003          	.insn	4, 0x08093003
    1208:	0100                	.insn	2, 0x0100
    120a:	2405                	.insn	2, 0x2405
    120c:	0200                	.insn	2, 0x0200
    120e:	0204                	.insn	2, 0x0204
    1210:	00096503          	.insn	4, 0x00096503
    1214:	0100                	.insn	2, 0x0100
    1216:	0905                	.insn	2, 0x0905
    1218:	08090603          	lb	a2,128(s2)
    121c:	0100                	.insn	2, 0x0100
    121e:	00090103          	lb	sp,0(s2)
    1222:	0100                	.insn	2, 0x0100
    1224:	00090103          	lb	sp,0(s2)
    1228:	0100                	.insn	2, 0x0100
    122a:	00090503          	lb	a0,0(s2)
    122e:	0100                	.insn	2, 0x0100
    1230:	0d05                	.insn	2, 0x0d05
    1232:	0306                	.insn	2, 0x0306
    1234:	0900                	.insn	2, 0x0900
    1236:	0000                	.insn	2, 0x
    1238:	0501                	.insn	2, 0x0501
    123a:	030c                	.insn	2, 0x030c
    123c:	0900                	.insn	2, 0x0900
    123e:	0004                	.insn	2, 0x0004
    1240:	0501                	.insn	2, 0x0501
    1242:	060d                	.insn	2, 0x060d
    1244:	04090103          	lb	sp,64(s2)
    1248:	0100                	.insn	2, 0x0100
    124a:	00090103          	lb	sp,0(s2)
    124e:	0100                	.insn	2, 0x0100
    1250:	0e05                	.insn	2, 0x0e05
    1252:	0306                	.insn	2, 0x0306
    1254:	0900                	.insn	2, 0x0900
    1256:	0000                	.insn	2, 0x
    1258:	0501                	.insn	2, 0x0501
    125a:	09790313          	addi	t1,s2,151
    125e:	0004                	.insn	2, 0x0004
    1260:	0501                	.insn	2, 0x0501
    1262:	060d                	.insn	2, 0x060d
    1264:	08090a03          	lb	s4,128(s2)
    1268:	0100                	.insn	2, 0x0100
    126a:	2305                	.insn	2, 0x2305
    126c:	0306                	.insn	2, 0x0306
    126e:	0900                	.insn	2, 0x0900
    1270:	0000                	.insn	2, 0x
    1272:	0501                	.insn	2, 0x0501
    1274:	030e                	.insn	2, 0x030e
    1276:	0901                	.insn	2, 0x0901
    1278:	0004                	.insn	2, 0x0004
    127a:	0501                	.insn	2, 0x0501
    127c:	097f0317          	auipc	t1,0x97f0
    1280:	0004                	.insn	2, 0x0004
    1282:	0501                	.insn	2, 0x0501
    1284:	060d                	.insn	2, 0x060d
    1286:	04090103          	lb	sp,64(s2)
    128a:	0100                	.insn	2, 0x0100
    128c:	1a05                	.insn	2, 0x1a05
    128e:	00097e03          	.insn	4, 0x00097e03
    1292:	0100                	.insn	2, 0x0100
    1294:	1005                	.insn	2, 0x1005
    1296:	0306                	.insn	2, 0x0306
    1298:	0900                	.insn	2, 0x0900
    129a:	0000                	.insn	2, 0x
    129c:	0501                	.insn	2, 0x0501
    129e:	031a                	.insn	2, 0x031a
    12a0:	0900                	.insn	2, 0x0900
    12a2:	0004                	.insn	2, 0x0004
    12a4:	0501                	.insn	2, 0x0501
    12a6:	0609                	.insn	2, 0x0609
    12a8:	0c090503          	lb	a0,192(s2)
    12ac:	0100                	.insn	2, 0x0100
    12ae:	0d05                	.insn	2, 0x0d05
    12b0:	20092203          	lw	tp,512(s2)
    12b4:	0100                	.insn	2, 0x0100
    12b6:	0505                	.insn	2, 0x0505
    12b8:	097efe03          	.insn	4, 0x097efe03
    12bc:	0000                	.insn	2, 0x
    12be:	0401                	.insn	2, 0x0401
    12c0:	0302                	.insn	2, 0x0302
    12c2:	0935                	.insn	2, 0x0935
    12c4:	0000                	.insn	2, 0x
    12c6:	0501                	.insn	2, 0x0501
    12c8:	0620                	.insn	2, 0x0620
    12ca:	00090003          	lb	zero,0(s2)
    12ce:	0100                	.insn	2, 0x0100
    12d0:	0104                	.insn	2, 0x0104
    12d2:	0d05                	.insn	2, 0x0d05
    12d4:	0306                	.insn	2, 0x0306
    12d6:	00ce                	.insn	2, 0x00ce
    12d8:	0c09                	.insn	2, 0x0c09
    12da:	0100                	.insn	2, 0x0100
    12dc:	0505                	.insn	2, 0x0505
    12de:	097efd03          	.insn	4, 0x097efd03
    12e2:	0000                	.insn	2, 0x
    12e4:	0501                	.insn	2, 0x0501
    12e6:	060a                	.insn	2, 0x060a
    12e8:	0900d003          	lhu	zero,144(ra)
    12ec:	0008                	.insn	2, 0x0008
    12ee:	0501                	.insn	2, 0x0501
    12f0:	09020313          	addi	t1,tp,144 # 90 <bsp_trap_entry+0x20>
    12f4:	0004                	.insn	2, 0x0004
    12f6:	0501                	.insn	2, 0x0501
    12f8:	0309                	.insn	2, 0x0309
    12fa:	090e                	.insn	2, 0x090e
    12fc:	0008                	.insn	2, 0x0008
    12fe:	0501                	.insn	2, 0x0501
    1300:	060d                	.insn	2, 0x060d
    1302:	10091103          	lh	sp,256(s2)
    1306:	0100                	.insn	2, 0x0100
    1308:	0505                	.insn	2, 0x0505
    130a:	08094803          	lbu	a6,128(s2)
    130e:	0100                	.insn	2, 0x0100
    1310:	0d05                	.insn	2, 0x0d05
    1312:	0306                	.insn	2, 0x0306
    1314:	0938                	.insn	2, 0x0938
    1316:	0000                	.insn	2, 0x
    1318:	0501                	.insn	2, 0x0501
    131a:	0308                	.insn	2, 0x0308
    131c:	0948                	.insn	2, 0x0948
    131e:	0008                	.insn	2, 0x0008
    1320:	0501                	.insn	2, 0x0501
    1322:	0609                	.insn	2, 0x0609
    1324:	04090103          	lb	sp,64(s2)
    1328:	0100                	.insn	2, 0x0100
    132a:	0505                	.insn	2, 0x0505
    132c:	00094603          	lbu	a2,0(s2)
    1330:	0100                	.insn	2, 0x0100
    1332:	0204                	.insn	2, 0x0204
    1334:	00093503          	.insn	4, 0x00093503
    1338:	0100                	.insn	2, 0x0100
    133a:	2005                	.insn	2, 0x2005
    133c:	0306                	.insn	2, 0x0306
    133e:	0900                	.insn	2, 0x0900
    1340:	0000                	.insn	2, 0x
    1342:	0401                	.insn	2, 0x0401
    1344:	0501                	.insn	2, 0x0501
    1346:	0609                	.insn	2, 0x0609
    1348:	0c090703          	lb	a4,192(s2)
    134c:	0100                	.insn	2, 0x0100
    134e:	0d05                	.insn	2, 0x0d05
    1350:	0200                	.insn	2, 0x0200
    1352:	0104                	.insn	2, 0x0104
    1354:	0306                	.insn	2, 0x0306
    1356:	00c2                	.insn	2, 0x00c2
    1358:	0c09                	.insn	2, 0x0c09
    135a:	0100                	.insn	2, 0x0100
    135c:	0306                	.insn	2, 0x0306
    135e:	0901                	.insn	2, 0x0901
    1360:	0004                	.insn	2, 0x0004
    1362:	0501                	.insn	2, 0x0501
    1364:	0609                	.insn	2, 0x0609
    1366:	04096103          	.insn	4, 0x04096103
    136a:	0100                	.insn	2, 0x0100
    136c:	0d05                	.insn	2, 0x0d05
    136e:	0306                	.insn	2, 0x0306
    1370:	090a                	.insn	2, 0x090a
    1372:	0018                	.insn	2, 0x0018
    1374:	0501                	.insn	2, 0x0501
    1376:	0619                	.insn	2, 0x0619
    1378:	00090003          	lb	zero,0(s2)
    137c:	0100                	.insn	2, 0x0100
    137e:	0d05                	.insn	2, 0x0d05
    1380:	0306                	.insn	2, 0x0306
    1382:	0901                	.insn	2, 0x0901
    1384:	0008                	.insn	2, 0x0008
    1386:	0501                	.insn	2, 0x0501
    1388:	0619                	.insn	2, 0x0619
    138a:	00097f03          	.insn	4, 0x00097f03
    138e:	0100                	.insn	2, 0x0100
    1390:	1005                	.insn	2, 0x1005
    1392:	08090103          	lb	sp,128(s2)
    1396:	0100                	.insn	2, 0x0100
    1398:	1705                	.insn	2, 0x1705
    139a:	0200                	.insn	2, 0x0200
    139c:	0104                	.insn	2, 0x0104
    139e:	04090003          	lb	zero,64(s2)
    13a2:	0100                	.insn	2, 0x0100
    13a4:	0d05                	.insn	2, 0x0d05
    13a6:	0306                	.insn	2, 0x0306
    13a8:	0901                	.insn	2, 0x0901
    13aa:	0008                	.insn	2, 0x0008
    13ac:	0301                	.insn	2, 0x0301
    13ae:	0901                	.insn	2, 0x0901
    13b0:	0004                	.insn	2, 0x0004
    13b2:	0501                	.insn	2, 0x0501
    13b4:	0609                	.insn	2, 0x0609
    13b6:	04097303          	.insn	4, 0x04097303
    13ba:	0100                	.insn	2, 0x0100
    13bc:	0d05                	.insn	2, 0x0d05
    13be:	0306                	.insn	2, 0x0306
    13c0:	00080917          	auipc	s2,0x80
    13c4:	0001                	.insn	2, 0x0001
    13c6:	0402                	.insn	2, 0x0402
    13c8:	0601                	.insn	2, 0x0601
    13ca:	0c090703          	lb	a4,192(s2) # 81480 <__stack_size+0x79480>
    13ce:	0100                	.insn	2, 0x0100
    13d0:	0306                	.insn	2, 0x0306
    13d2:	0969                	.insn	2, 0x0969
    13d4:	0008                	.insn	2, 0x0008
    13d6:	0501                	.insn	2, 0x0501
    13d8:	061d                	.insn	2, 0x061d
    13da:	00090003          	lb	zero,0(s2)
    13de:	0100                	.insn	2, 0x0100
    13e0:	0505                	.insn	2, 0x0505
    13e2:	0306                	.insn	2, 0x0306
    13e4:	7f99                	.insn	2, 0x7f99
    13e6:	0c09                	.insn	2, 0x0c09
    13e8:	0100                	.insn	2, 0x0100
    13ea:	0204                	.insn	2, 0x0204
    13ec:	04093503          	.insn	4, 0x04093503
    13f0:	0100                	.insn	2, 0x0100
    13f2:	2005                	.insn	2, 0x2005
    13f4:	0306                	.insn	2, 0x0306
    13f6:	0900                	.insn	2, 0x0900
    13f8:	0000                	.insn	2, 0x
    13fa:	0501                	.insn	2, 0x0501
    13fc:	0605                	.insn	2, 0x0605
    13fe:	04090003          	lb	zero,64(s2)
    1402:	0100                	.insn	2, 0x0100
    1404:	2005                	.insn	2, 0x2005
    1406:	0306                	.insn	2, 0x0306
    1408:	0900                	.insn	2, 0x0900
    140a:	0000                	.insn	2, 0x
    140c:	0401                	.insn	2, 0x0401
    140e:	0501                	.insn	2, 0x0501
    1410:	060d                	.insn	2, 0x060d
    1412:	0900cf03          	lbu	t5,144(ra)
    1416:	0004                	.insn	2, 0x0004
    1418:	0501                	.insn	2, 0x0501
    141a:	0601                	.insn	2, 0x0601
    141c:	097efd03          	.insn	4, 0x097efd03
    1420:	0000                	.insn	2, 0x
    1422:	0501                	.insn	2, 0x0501
    1424:	0609                	.insn	2, 0x0609
    1426:	04093d03          	.insn	4, 0x04093d03
    142a:	0100                	.insn	2, 0x0100
    142c:	0d05                	.insn	2, 0x0d05
    142e:	0c093603          	.insn	4, 0x0c093603
    1432:	0100                	.insn	2, 0x0100
    1434:	0200                	.insn	2, 0x0200
    1436:	0104                	.insn	2, 0x0104
    1438:	0306                	.insn	2, 0x0306
    143a:	0900                	.insn	2, 0x0900
    143c:	0004                	.insn	2, 0x0004
    143e:	0301                	.insn	2, 0x0301
    1440:	0900                	.insn	2, 0x0900
    1442:	0004                	.insn	2, 0x0004
    1444:	0001                	.insn	2, 0x0001
    1446:	0402                	.insn	2, 0x0402
    1448:	0301                	.insn	2, 0x0301
    144a:	0900                	.insn	2, 0x0900
    144c:	0008                	.insn	2, 0x0008
    144e:	0001                	.insn	2, 0x0001
    1450:	0402                	.insn	2, 0x0402
    1452:	0301                	.insn	2, 0x0301
    1454:	090a                	.insn	2, 0x090a
    1456:	0004                	.insn	2, 0x0004
    1458:	0601                	.insn	2, 0x0601
    145a:	08097c03          	.insn	4, 0x08097c03
    145e:	0100                	.insn	2, 0x0100
    1460:	0200                	.insn	2, 0x0200
    1462:	0104                	.insn	2, 0x0104
    1464:	0306                	.insn	2, 0x0306
    1466:	0900                	.insn	2, 0x0900
    1468:	000c                	.insn	2, 0x000c
    146a:	0001                	.insn	2, 0x0001
    146c:	0402                	.insn	2, 0x0402
    146e:	0301                	.insn	2, 0x0301
    1470:	0904                	.insn	2, 0x0904
    1472:	0004                	.insn	2, 0x0004
    1474:	0601                	.insn	2, 0x0601
    1476:	08097f03          	.insn	4, 0x08097f03
    147a:	0100                	.insn	2, 0x0100
    147c:	0c090103          	lb	sp,192(s2)
    1480:	0100                	.insn	2, 0x0100
    1482:	2b05                	.insn	2, 0x2b05
    1484:	0306                	.insn	2, 0x0306
    1486:	0900                	.insn	2, 0x0900
    1488:	0000                	.insn	2, 0x
    148a:	0501                	.insn	2, 0x0501
    148c:	000d                	.insn	2, 0x000d
    148e:	0402                	.insn	2, 0x0402
    1490:	0301                	.insn	2, 0x0301
    1492:	0900                	.insn	2, 0x0900
    1494:	0004                	.insn	2, 0x0004
    1496:	0501                	.insn	2, 0x0501
    1498:	0900032b          	.insn	4, 0x0900032b
    149c:	0004                	.insn	2, 0x0004
    149e:	0501                	.insn	2, 0x0501
    14a0:	000d                	.insn	2, 0x000d
    14a2:	0402                	.insn	2, 0x0402
    14a4:	0301                	.insn	2, 0x0301
    14a6:	0900                	.insn	2, 0x0900
    14a8:	0008                	.insn	2, 0x0008
    14aa:	0901                	.insn	2, 0x0901
    14ac:	0008                	.insn	2, 0x0008
    14ae:	0100                	.insn	2, 0x0100
    14b0:	b201                	.insn	2, 0xb201
    14b2:	0000                	.insn	2, 0x
    14b4:	0500                	.insn	2, 0x0500
    14b6:	0400                	.insn	2, 0x0400
    14b8:	2e00                	.insn	2, 0x2e00
    14ba:	0000                	.insn	2, 0x
    14bc:	0100                	.insn	2, 0x0100
    14be:	0101                	.insn	2, 0x0101
    14c0:	000d0efb          	.insn	4, 0x000d0efb
    14c4:	0101                	.insn	2, 0x0101
    14c6:	0101                	.insn	2, 0x0101
    14c8:	0000                	.insn	2, 0x
    14ca:	0100                	.insn	2, 0x0100
    14cc:	0000                	.insn	2, 0x
    14ce:	0101                	.insn	2, 0x0101
    14d0:	1f01                	.insn	2, 0x1f01
    14d2:	0002                	.insn	2, 0x0002
    14d4:	0000                	.insn	2, 0x
    14d6:	3f00                	.insn	2, 0x3f00
    14d8:	0001                	.insn	2, 0x0001
    14da:	0200                	.insn	2, 0x0200
    14dc:	1f01                	.insn	2, 0x1f01
    14de:	0f02                	.insn	2, 0x0f02
    14e0:	9602                	.insn	2, 0x9602
    14e2:	0001                	.insn	2, 0x0001
    14e4:	0100                	.insn	2, 0x0100
    14e6:	0196                	.insn	2, 0x0196
    14e8:	0000                	.insn	2, 0x
    14ea:	0001                	.insn	2, 0x0001
    14ec:	0205                	.insn	2, 0x0205
    14ee:	0000                	.insn	2, 0x
    14f0:	0000                	.insn	2, 0x
    14f2:	03011903          	lh	s2,48(sp)
    14f6:	0902                	.insn	2, 0x0902
    14f8:	0008                	.insn	2, 0x0008
    14fa:	0301                	.insn	2, 0x0301
    14fc:	0905                	.insn	2, 0x0905
    14fe:	0008                	.insn	2, 0x0008
    1500:	0301                	.insn	2, 0x0301
    1502:	0901                	.insn	2, 0x0901
    1504:	0008                	.insn	2, 0x0008
    1506:	0301                	.insn	2, 0x0301
    1508:	0901                	.insn	2, 0x0901
    150a:	0008                	.insn	2, 0x0008
    150c:	0301                	.insn	2, 0x0301
    150e:	0901                	.insn	2, 0x0901
    1510:	0008                	.insn	2, 0x0008
    1512:	0301                	.insn	2, 0x0301
    1514:	0902                	.insn	2, 0x0902
    1516:	0004                	.insn	2, 0x0004
    1518:	0301                	.insn	2, 0x0301
    151a:	0901                	.insn	2, 0x0901
    151c:	0004                	.insn	2, 0x0004
    151e:	0301                	.insn	2, 0x0301
    1520:	0901                	.insn	2, 0x0901
    1522:	0004                	.insn	2, 0x0004
    1524:	0301                	.insn	2, 0x0301
    1526:	0901                	.insn	2, 0x0901
    1528:	0004                	.insn	2, 0x0004
    152a:	0301                	.insn	2, 0x0301
    152c:	0901                	.insn	2, 0x0901
    152e:	0004                	.insn	2, 0x0004
    1530:	0301                	.insn	2, 0x0301
    1532:	0906                	.insn	2, 0x0906
    1534:	0004                	.insn	2, 0x0004
    1536:	0301                	.insn	2, 0x0301
    1538:	0901                	.insn	2, 0x0901
    153a:	0008                	.insn	2, 0x0008
    153c:	0301                	.insn	2, 0x0301
    153e:	0901                	.insn	2, 0x0901
    1540:	0008                	.insn	2, 0x0008
    1542:	0301                	.insn	2, 0x0301
    1544:	0902                	.insn	2, 0x0902
    1546:	0004                	.insn	2, 0x0004
    1548:	0301                	.insn	2, 0x0301
    154a:	0901                	.insn	2, 0x0901
    154c:	0004                	.insn	2, 0x0004
    154e:	0301                	.insn	2, 0x0301
    1550:	0901                	.insn	2, 0x0901
    1552:	0004                	.insn	2, 0x0004
    1554:	0301                	.insn	2, 0x0301
    1556:	0906                	.insn	2, 0x0906
    1558:	0004                	.insn	2, 0x0004
    155a:	0301                	.insn	2, 0x0301
    155c:	00040907          	.insn	4, 0x00040907
    1560:	0901                	.insn	2, 0x0901
    1562:	0004                	.insn	2, 0x0004
    1564:	0100                	.insn	2, 0x0100
    1566:	2001                	.insn	2, 0x2001
    1568:	0002                	.insn	2, 0x0002
    156a:	0500                	.insn	2, 0x0500
    156c:	0400                	.insn	2, 0x0400
    156e:	2e00                	.insn	2, 0x2e00
    1570:	0000                	.insn	2, 0x
    1572:	0100                	.insn	2, 0x0100
    1574:	0101                	.insn	2, 0x0101
    1576:	000d0efb          	.insn	4, 0x000d0efb
    157a:	0101                	.insn	2, 0x0101
    157c:	0101                	.insn	2, 0x0101
    157e:	0000                	.insn	2, 0x
    1580:	0100                	.insn	2, 0x0100
    1582:	0000                	.insn	2, 0x
    1584:	0101                	.insn	2, 0x0101
    1586:	1f01                	.insn	2, 0x1f01
    1588:	0002                	.insn	2, 0x0002
    158a:	0000                	.insn	2, 0x
    158c:	3f00                	.insn	2, 0x3f00
    158e:	0001                	.insn	2, 0x0001
    1590:	0200                	.insn	2, 0x0200
    1592:	1f01                	.insn	2, 0x1f01
    1594:	0f02                	.insn	2, 0x0f02
    1596:	9e02                	.insn	2, 0x9e02
    1598:	0001                	.insn	2, 0x0001
    159a:	0100                	.insn	2, 0x0100
    159c:	019e                	.insn	2, 0x019e
    159e:	0000                	.insn	2, 0x
    15a0:	0001                	.insn	2, 0x0001
    15a2:	0205                	.insn	2, 0x0205
    15a4:	0070                	.insn	2, 0x0070
    15a6:	0000                	.insn	2, 0x
    15a8:	03012703          	lw	a4,48(sp)
    15ac:	00040903          	lb	s2,0(s0)
    15b0:	0301                	.insn	2, 0x0301
    15b2:	0901                	.insn	2, 0x0901
    15b4:	0004                	.insn	2, 0x0004
    15b6:	0301                	.insn	2, 0x0301
    15b8:	0901                	.insn	2, 0x0901
    15ba:	0004                	.insn	2, 0x0004
    15bc:	0301                	.insn	2, 0x0301
    15be:	0901                	.insn	2, 0x0901
    15c0:	0004                	.insn	2, 0x0004
    15c2:	0301                	.insn	2, 0x0301
    15c4:	0901                	.insn	2, 0x0901
    15c6:	0004                	.insn	2, 0x0004
    15c8:	0301                	.insn	2, 0x0301
    15ca:	0901                	.insn	2, 0x0901
    15cc:	0004                	.insn	2, 0x0004
    15ce:	0301                	.insn	2, 0x0301
    15d0:	0901                	.insn	2, 0x0901
    15d2:	0004                	.insn	2, 0x0004
    15d4:	0301                	.insn	2, 0x0301
    15d6:	0901                	.insn	2, 0x0901
    15d8:	0004                	.insn	2, 0x0004
    15da:	0301                	.insn	2, 0x0301
    15dc:	0901                	.insn	2, 0x0901
    15de:	0004                	.insn	2, 0x0004
    15e0:	0301                	.insn	2, 0x0301
    15e2:	0901                	.insn	2, 0x0901
    15e4:	0004                	.insn	2, 0x0004
    15e6:	0301                	.insn	2, 0x0301
    15e8:	0901                	.insn	2, 0x0901
    15ea:	0004                	.insn	2, 0x0004
    15ec:	0301                	.insn	2, 0x0301
    15ee:	0901                	.insn	2, 0x0901
    15f0:	0004                	.insn	2, 0x0004
    15f2:	0301                	.insn	2, 0x0301
    15f4:	0901                	.insn	2, 0x0901
    15f6:	0004                	.insn	2, 0x0004
    15f8:	0301                	.insn	2, 0x0301
    15fa:	0901                	.insn	2, 0x0901
    15fc:	0004                	.insn	2, 0x0004
    15fe:	0301                	.insn	2, 0x0301
    1600:	0901                	.insn	2, 0x0901
    1602:	0004                	.insn	2, 0x0004
    1604:	0301                	.insn	2, 0x0301
    1606:	0901                	.insn	2, 0x0901
    1608:	0004                	.insn	2, 0x0004
    160a:	0301                	.insn	2, 0x0301
    160c:	0901                	.insn	2, 0x0901
    160e:	0004                	.insn	2, 0x0004
    1610:	0301                	.insn	2, 0x0301
    1612:	0901                	.insn	2, 0x0901
    1614:	0004                	.insn	2, 0x0004
    1616:	0301                	.insn	2, 0x0301
    1618:	0901                	.insn	2, 0x0901
    161a:	0004                	.insn	2, 0x0004
    161c:	0301                	.insn	2, 0x0301
    161e:	0901                	.insn	2, 0x0901
    1620:	0004                	.insn	2, 0x0004
    1622:	0301                	.insn	2, 0x0301
    1624:	0901                	.insn	2, 0x0901
    1626:	0004                	.insn	2, 0x0004
    1628:	0301                	.insn	2, 0x0301
    162a:	0901                	.insn	2, 0x0901
    162c:	0004                	.insn	2, 0x0004
    162e:	0301                	.insn	2, 0x0301
    1630:	0901                	.insn	2, 0x0901
    1632:	0004                	.insn	2, 0x0004
    1634:	0301                	.insn	2, 0x0301
    1636:	0901                	.insn	2, 0x0901
    1638:	0004                	.insn	2, 0x0004
    163a:	0301                	.insn	2, 0x0301
    163c:	0901                	.insn	2, 0x0901
    163e:	0004                	.insn	2, 0x0004
    1640:	0301                	.insn	2, 0x0301
    1642:	0901                	.insn	2, 0x0901
    1644:	0004                	.insn	2, 0x0004
    1646:	0301                	.insn	2, 0x0301
    1648:	0901                	.insn	2, 0x0901
    164a:	0004                	.insn	2, 0x0004
    164c:	0301                	.insn	2, 0x0301
    164e:	0901                	.insn	2, 0x0901
    1650:	0004                	.insn	2, 0x0004
    1652:	0301                	.insn	2, 0x0301
    1654:	0901                	.insn	2, 0x0901
    1656:	0004                	.insn	2, 0x0004
    1658:	0301                	.insn	2, 0x0301
    165a:	0901                	.insn	2, 0x0901
    165c:	0004                	.insn	2, 0x0004
    165e:	0301                	.insn	2, 0x0301
    1660:	0901                	.insn	2, 0x0901
    1662:	0004                	.insn	2, 0x0004
    1664:	0301                	.insn	2, 0x0301
    1666:	00040903          	lb	s2,0(s0)
    166a:	0301                	.insn	2, 0x0301
    166c:	0901                	.insn	2, 0x0901
    166e:	0004                	.insn	2, 0x0004
    1670:	0301                	.insn	2, 0x0301
    1672:	00040903          	lb	s2,0(s0)
    1676:	0301                	.insn	2, 0x0301
    1678:	0901                	.insn	2, 0x0901
    167a:	0004                	.insn	2, 0x0004
    167c:	0301                	.insn	2, 0x0301
    167e:	0901                	.insn	2, 0x0901
    1680:	0004                	.insn	2, 0x0004
    1682:	0301                	.insn	2, 0x0301
    1684:	0901                	.insn	2, 0x0901
    1686:	0004                	.insn	2, 0x0004
    1688:	0301                	.insn	2, 0x0301
    168a:	0901                	.insn	2, 0x0901
    168c:	0004                	.insn	2, 0x0004
    168e:	0301                	.insn	2, 0x0301
    1690:	0901                	.insn	2, 0x0901
    1692:	0004                	.insn	2, 0x0004
    1694:	0301                	.insn	2, 0x0301
    1696:	0901                	.insn	2, 0x0901
    1698:	0004                	.insn	2, 0x0004
    169a:	0301                	.insn	2, 0x0301
    169c:	0901                	.insn	2, 0x0901
    169e:	0004                	.insn	2, 0x0004
    16a0:	0301                	.insn	2, 0x0301
    16a2:	00040903          	lb	s2,0(s0)
    16a6:	0301                	.insn	2, 0x0301
    16a8:	0901                	.insn	2, 0x0901
    16aa:	0004                	.insn	2, 0x0004
    16ac:	0301                	.insn	2, 0x0301
    16ae:	00040903          	lb	s2,0(s0)
    16b2:	0301                	.insn	2, 0x0301
    16b4:	0901                	.insn	2, 0x0901
    16b6:	0004                	.insn	2, 0x0004
    16b8:	0301                	.insn	2, 0x0301
    16ba:	0901                	.insn	2, 0x0901
    16bc:	0004                	.insn	2, 0x0004
    16be:	0301                	.insn	2, 0x0301
    16c0:	0901                	.insn	2, 0x0901
    16c2:	0004                	.insn	2, 0x0004
    16c4:	0301                	.insn	2, 0x0301
    16c6:	0902                	.insn	2, 0x0902
    16c8:	0004                	.insn	2, 0x0004
    16ca:	0301                	.insn	2, 0x0301
    16cc:	0905                	.insn	2, 0x0905
    16ce:	0004                	.insn	2, 0x0004
    16d0:	0301                	.insn	2, 0x0301
    16d2:	0901                	.insn	2, 0x0901
    16d4:	0004                	.insn	2, 0x0004
    16d6:	0301                	.insn	2, 0x0301
    16d8:	0901                	.insn	2, 0x0901
    16da:	0004                	.insn	2, 0x0004
    16dc:	0301                	.insn	2, 0x0301
    16de:	0901                	.insn	2, 0x0901
    16e0:	0004                	.insn	2, 0x0004
    16e2:	0301                	.insn	2, 0x0301
    16e4:	0901                	.insn	2, 0x0901
    16e6:	0004                	.insn	2, 0x0004
    16e8:	0301                	.insn	2, 0x0301
    16ea:	0901                	.insn	2, 0x0901
    16ec:	0004                	.insn	2, 0x0004
    16ee:	0301                	.insn	2, 0x0301
    16f0:	0901                	.insn	2, 0x0901
    16f2:	0004                	.insn	2, 0x0004
    16f4:	0301                	.insn	2, 0x0301
    16f6:	0901                	.insn	2, 0x0901
    16f8:	0004                	.insn	2, 0x0004
    16fa:	0301                	.insn	2, 0x0301
    16fc:	0901                	.insn	2, 0x0901
    16fe:	0004                	.insn	2, 0x0004
    1700:	0301                	.insn	2, 0x0301
    1702:	0901                	.insn	2, 0x0901
    1704:	0004                	.insn	2, 0x0004
    1706:	0301                	.insn	2, 0x0301
    1708:	0901                	.insn	2, 0x0901
    170a:	0004                	.insn	2, 0x0004
    170c:	0301                	.insn	2, 0x0301
    170e:	0901                	.insn	2, 0x0901
    1710:	0004                	.insn	2, 0x0004
    1712:	0301                	.insn	2, 0x0301
    1714:	0901                	.insn	2, 0x0901
    1716:	0004                	.insn	2, 0x0004
    1718:	0301                	.insn	2, 0x0301
    171a:	0901                	.insn	2, 0x0901
    171c:	0004                	.insn	2, 0x0004
    171e:	0301                	.insn	2, 0x0301
    1720:	0901                	.insn	2, 0x0901
    1722:	0004                	.insn	2, 0x0004
    1724:	0301                	.insn	2, 0x0301
    1726:	0901                	.insn	2, 0x0901
    1728:	0004                	.insn	2, 0x0004
    172a:	0301                	.insn	2, 0x0301
    172c:	0901                	.insn	2, 0x0901
    172e:	0004                	.insn	2, 0x0004
    1730:	0301                	.insn	2, 0x0301
    1732:	0901                	.insn	2, 0x0901
    1734:	0004                	.insn	2, 0x0004
    1736:	0301                	.insn	2, 0x0301
    1738:	0901                	.insn	2, 0x0901
    173a:	0004                	.insn	2, 0x0004
    173c:	0301                	.insn	2, 0x0301
    173e:	0901                	.insn	2, 0x0901
    1740:	0004                	.insn	2, 0x0004
    1742:	0301                	.insn	2, 0x0301
    1744:	0901                	.insn	2, 0x0901
    1746:	0004                	.insn	2, 0x0004
    1748:	0301                	.insn	2, 0x0301
    174a:	0901                	.insn	2, 0x0901
    174c:	0004                	.insn	2, 0x0004
    174e:	0301                	.insn	2, 0x0301
    1750:	0901                	.insn	2, 0x0901
    1752:	0004                	.insn	2, 0x0004
    1754:	0301                	.insn	2, 0x0301
    1756:	0901                	.insn	2, 0x0901
    1758:	0004                	.insn	2, 0x0004
    175a:	0301                	.insn	2, 0x0301
    175c:	0901                	.insn	2, 0x0901
    175e:	0004                	.insn	2, 0x0004
    1760:	0301                	.insn	2, 0x0301
    1762:	0901                	.insn	2, 0x0901
    1764:	0004                	.insn	2, 0x0004
    1766:	0301                	.insn	2, 0x0301
    1768:	0901                	.insn	2, 0x0901
    176a:	0004                	.insn	2, 0x0004
    176c:	0301                	.insn	2, 0x0301
    176e:	0901                	.insn	2, 0x0901
    1770:	0004                	.insn	2, 0x0004
    1772:	0301                	.insn	2, 0x0301
    1774:	0901                	.insn	2, 0x0901
    1776:	0004                	.insn	2, 0x0004
    1778:	0301                	.insn	2, 0x0301
    177a:	0902                	.insn	2, 0x0902
    177c:	0004                	.insn	2, 0x0004
    177e:	0301                	.insn	2, 0x0301
    1780:	0901                	.insn	2, 0x0901
    1782:	0004                	.insn	2, 0x0004
    1784:	0901                	.insn	2, 0x0901
    1786:	0004                	.insn	2, 0x0004
    1788:	0100                	.insn	2, 0x0100
    178a:	Address 0x178a is out of bounds.


Disassembly of section .debug_str:

00000000 <.debug_str>:
    la      gp, __global_pointer$
   0:	6175                	.insn	2, 0x6175
   2:	7472                	.insn	2, 0x7472
   4:	705f 6972 746e      	.insn	6, 0x746e6972705f
    la      sp, __stack_top
   a:	0066                	.insn	2, 0x0066
   c:	7362                	.insn	2, 0x7362
   e:	5f70                	.insn	2, 0x5f70
    la      a0, _data_lma
  10:	7274                	.insn	2, 0x7274
  12:	7061                	.insn	2, 0x7061
  14:	685f 6e61 6c64      	.insn	6, 0x6c646e61685f
    la      a1, _data
  1a:	7265                	.insn	2, 0x7265
  1c:	745f 6d00 7674      	.insn	6, 0x76746d00745f
    la      a2, _edata
  22:	6c61                	.insn	2, 0x6c61
  24:	7400                	.insn	2, 0x7400
  26:	6d69                	.insn	2, 0x6d69
    bgeu    a1, a2, 2f
  28:	7265                	.insn	2, 0x7265
  2a:	745f 6369 006b      	.insn	6, 0x006b6369745f
    sw      t0, 0(a1)
  30:	6975                	.insn	2, 0x6975
  32:	746e                	.insn	2, 0x746e
    addi    a0, a0, 4
  34:	7470                	.insn	2, 0x7470
  36:	5f72                	.insn	2, 0x5f72
    addi    a1, a1, 4
  38:	0074                	.insn	2, 0x0074
  3a:	6e696c63          	bltu	s2,t1,732 <put_uint+0x62>
    bltu    a1, a2, 1b
  3e:	5f74                	.insn	2, 0x5f74
    la      a0, _fbss
  40:	65686373          	csrrsi	t1,hviprio1h,16
  44:	7564                	.insn	2, 0x7564
  46:	656c                	.insn	2, 0x656c
    la      a1, _end
  48:	725f 6c65 7461      	.insn	6, 0x74616c65725f
  4e:	7669                	.insn	2, 0x7669
    bgeu    a0, a1, 2f
  50:	0065                	.insn	2, 0x0065
  52:	6174                	.insn	2, 0x6174
    sw      zero, 0(a0)
  54:	795f6b73          	csrrsi	s6,0x795,30
    addi    a0, a0, 4
  58:	6569                	.insn	2, 0x6569
  5a:	646c                	.insn	2, 0x646c
    bltu    a0, a1, 1b
  5c:	7500                	.insn	2, 0x7500
  5e:	6e69                	.insn	2, 0x6e69
    call    main
  60:	3674                	.insn	2, 0x3674
  62:	5f34                	.insn	2, 0x5f34
    j       .L_halt
  64:	0074                	.insn	2, 0x0074
  66:	6d6d                	.insn	2, 0x6d6d
  68:	6f69                	.insn	2, 0x6f69
  6a:	725f 6165 3364      	.insn	6, 0x33646165725f
    addi    sp, sp, -FRAME_SIZE
  70:	0032                	.insn	2, 0x0032
  72:	6564                	.insn	2, 0x6564
    sw      x1,  OFF_X(1)(sp)
  74:	746c                	.insn	2, 0x746c
  76:	5f61                	.insn	2, 0x5f61
    sw      x2,  OFF_X(2)(sp)            /* original sp is sp+FRAME_SIZE */
  78:	6974                	.insn	2, 0x6974
  7a:	00736b63          	bltu	t1,t2,90 <bsp_trap_entry+0x20>
    sw      x3,  OFF_X(3)(sp)
  7e:	6461                	.insn	2, 0x6461
    sw      x4,  OFF_X(4)(sp)
  80:	7264                	.insn	2, 0x7264
  82:	6200                	.insn	2, 0x6200
    sw      x5,  OFF_X(5)(sp)
  84:	735f7073          	csrci	mhpmevent21h,30
    sw      x6,  OFF_X(6)(sp)
  88:	7465                	.insn	2, 0x7465
  8a:	745f 6d69 7265      	.insn	6, 0x72656d69745f
    sw      x8,  OFF_X(8)(sp)
  90:	685f 6e61 6c64      	.insn	6, 0x6c646e61685f
    sw      x9,  OFF_X(9)(sp)
  96:	7265                	.insn	2, 0x7265
    sw      x10, OFF_X(10)(sp)
  98:	7500                	.insn	2, 0x7500
  9a:	736e                	.insn	2, 0x736e
    sw      x11, OFF_X(11)(sp)
  9c:	6769                	.insn	2, 0x6769
  9e:	656e                	.insn	2, 0x656e
    sw      x12, OFF_X(12)(sp)
  a0:	2064                	.insn	2, 0x2064
  a2:	72616863          	bltu	sp,t1,7d2 <uart_printf+0x2a>
    sw      x13, OFF_X(13)(sp)
  a6:	7400                	.insn	2, 0x7400
    sw      x14, OFF_X(14)(sp)
  a8:	7361                	.insn	2, 0x7361
  aa:	6d00306b          	.insn	4, 0x6d00306b
    sw      x15, OFF_X(15)(sp)
  ae:	73756163          	bltu	a0,s7,7d0 <uart_printf+0x28>
    sw      x16, OFF_X(16)(sp)
  b2:	0065                	.insn	2, 0x0065
    sw      x17, OFF_X(17)(sp)
  b4:	726f6873          	csrrsi	a6,mhpmevent6h,30
    sw      x18, OFF_X(18)(sp)
  b8:	2074                	.insn	2, 0x2074
  ba:	6e75                	.insn	2, 0x6e75
    sw      x19, OFF_X(19)(sp)
  bc:	6e676973          	csrrsi	s2,0x6e6,14
    sw      x20, OFF_X(20)(sp)
  c0:	6465                	.insn	2, 0x6465
  c2:	6920                	.insn	2, 0x6920
    sw      x21, OFF_X(21)(sp)
  c4:	746e                	.insn	2, 0x746e
  c6:	7400                	.insn	2, 0x7400
    sw      x22, OFF_X(22)(sp)
  c8:	6d69                	.insn	2, 0x6d69
  ca:	7265                	.insn	2, 0x7265
    sw      x23, OFF_X(23)(sp)
  cc:	635f 756f 746e      	.insn	6, 0x746e756f635f
    sw      x24, OFF_X(24)(sp)
  d2:	6300                	.insn	2, 0x6300
    sw      x25, OFF_X(25)(sp)
  d4:	696c                	.insn	2, 0x696c
  d6:	746e                	.insn	2, 0x746e
    sw      x26, OFF_X(26)(sp)
  d8:	735f 7465 6d5f      	.insn	6, 0x6d5f7465735f
    sw      x27, OFF_X(27)(sp)
  de:	6974                	.insn	2, 0x6974
    sw      x28, OFF_X(28)(sp)
  e0:	656d                	.insn	2, 0x656d
  e2:	00706d63          	bltu	zero,t2,fc <bsp_trap_entry+0x8c>
    sw      x29, OFF_X(29)(sp)
  e6:	6d6d                	.insn	2, 0x6d6d
    sw      x30, OFF_X(30)(sp)
  e8:	6f69                	.insn	2, 0x6f69
  ea:	775f 6972 6574      	.insn	6, 0x65746972775f
    addi    t0, sp, FRAME_SIZE
  f0:	62003233          	.insn	4, 0x62003233
    sw      t0, OFF_X(2)(sp)
  f4:	745f7073          	csrci	0x745,30
    csrr    t0, mepc
  f8:	6172                	.insn	2, 0x6172
  fa:	5f70                	.insn	2, 0x5f70
    sw      t0, OFF_MEPC(sp)
  fc:	7266                	.insn	2, 0x7266
  fe:	6d61                	.insn	2, 0x6d61
    csrr    t0, mcause
 100:	0065                	.insn	2, 0x0065
 102:	20554e47          	.insn	4, 0x20554e47
    sw      t0, OFF_MCAUSE(sp)
 106:	20373143          	.insn	4, 0x20373143
    csrr    t0, mtval
 10a:	3331                	.insn	2, 0x3331
    sw      t0, OFF_MTVAL(sp)
 10c:	322e                	.insn	2, 0x322e
 10e:	302e                	.insn	2, 0x302e
    csrr    t0, mstatus
 110:	2d20                	.insn	2, 0x2d20
 112:	616d                	.insn	2, 0x616d
    sw      t0, OFF_MSTATUS(sp)
 114:	6962                	.insn	2, 0x6962
 116:	693d                	.insn	2, 0x693d
    mv      a0, sp
 118:	706c                	.insn	2, 0x706c
 11a:	2d203233          	.insn	4, 0x2d203233
    call    bsp_trap_dispatch
 11e:	636d                	.insn	2, 0x636d
    lw      t0, OFF_MEPC(sp)
 120:	6f6d                	.insn	2, 0x6f6d
 122:	6564                	.insn	2, 0x6564
    csrw    mepc, t0
 124:	3d6c                	.insn	2, 0x3d6c
 126:	656d                	.insn	2, 0x656d
    lw      t0, OFF_MSTATUS(sp)
 128:	6c64                	.insn	2, 0x6c64
 12a:	2d20776f          	jal	a4,73fc <_data_lma+0x6890>
    csrw    mstatus, t0
 12e:	696d                	.insn	2, 0x696d
    lw      x1,  OFF_X(1)(sp)
 130:	732d6173          	csrrsi	sp,mhpmevent18h,26
    lw      x3,  OFF_X(3)(sp)
 134:	6570                	.insn	2, 0x6570
 136:	30323d63          	.insn	4, 0x30323d63
    lw      x4,  OFF_X(4)(sp)
 13a:	3931                	.insn	2, 0x3931
    lw      x5,  OFF_X(5)(sp)
 13c:	3231                	.insn	2, 0x3231
 13e:	3331                	.insn	2, 0x3331
    lw      x6,  OFF_X(6)(sp)
 140:	2d20                	.insn	2, 0x2d20
 142:	616d                	.insn	2, 0x616d
    lw      x7,  OFF_X(7)(sp)
 144:	6372                	.insn	2, 0x6372
 146:	3d68                	.insn	2, 0x3d68
    lw      x8,  OFF_X(8)(sp)
 148:	7672                	.insn	2, 0x7672
 14a:	6d693233          	.insn	4, 0x6d693233
    lw      x9,  OFF_X(9)(sp)
 14e:	7a5f 6369 7273      	.insn	6, 0x727363697a5f
    lw      x11, OFF_X(11)(sp)
 154:	7a5f 6669 6e65      	.insn	6, 0x6e6566697a5f
    lw      x12, OFF_X(12)(sp)
 15a:	20696563          	bltu	s2,t1,364 <main+0x9c>
    lw      x13, OFF_X(13)(sp)
 15e:	672d                	.insn	2, 0x672d
    lw      x14, OFF_X(14)(sp)
 160:	2d20                	.insn	2, 0x2d20
 162:	2d20734f          	.insn	4, 0x2d20734f
    lw      x15, OFF_X(15)(sp)
 166:	6666                	.insn	2, 0x6666
    lw      x16, OFF_X(16)(sp)
 168:	6572                	.insn	2, 0x6572
 16a:	7365                	.insn	2, 0x7365
    lw      x17, OFF_X(17)(sp)
 16c:	6174                	.insn	2, 0x6174
 16e:	646e                	.insn	2, 0x646e
    lw      x18, OFF_X(18)(sp)
 170:	6e69                	.insn	2, 0x6e69
 172:	662d2067          	.insn	4, 0x662d2067
    lw      x19, OFF_X(19)(sp)
 176:	6f6e                	.insn	2, 0x6f6e
    lw      x20, OFF_X(20)(sp)
 178:	622d                	.insn	2, 0x622d
 17a:	6975                	.insn	2, 0x6975
    lw      x21, OFF_X(21)(sp)
 17c:	746c                	.insn	2, 0x746c
 17e:	6e69                	.insn	2, 0x6e69
    lw      x22, OFF_X(22)(sp)
 180:	2d20                	.insn	2, 0x2d20
 182:	6e66                	.insn	2, 0x6e66
    lw      x23, OFF_X(23)(sp)
 184:	6f632d6f          	jal	s10,3287a <__stack_size+0x2a87a>
    lw      x24, OFF_X(24)(sp)
 188:	6d6d                	.insn	2, 0x6d6d
 18a:	2d206e6f          	jal	t3,645c <_data_lma+0x58f0>
    lw      x25, OFF_X(25)(sp)
 18e:	6666                	.insn	2, 0x6666
    lw      x26, OFF_X(26)(sp)
 190:	6e75                	.insn	2, 0x6e75
 192:	6f697463          	bgeu	s2,s6,87a <uart_printf+0xd2>
    lw      x27, OFF_X(27)(sp)
 196:	2d6e                	.insn	2, 0x2d6e
    lw      x28, OFF_X(28)(sp)
 198:	74636573          	csrrsi	a0,0x746,6
    lw      x29, OFF_X(29)(sp)
 19c:	6f69                	.insn	2, 0x6f69
 19e:	736e                	.insn	2, 0x736e
    lw      x30, OFF_X(30)(sp)
 1a0:	2d20                	.insn	2, 0x2d20
 1a2:	6466                	.insn	2, 0x6466
    lw      x31, OFF_X(31)(sp)
 1a4:	7461                	.insn	2, 0x7461
 1a6:	2d61                	.insn	2, 0x2d61
    addi    sp, sp, FRAME_SIZE
 1a8:	74636573          	csrrsi	a0,0x746,6
    mret
 1ac:	6f69                	.insn	2, 0x6f69
 1ae:	736e                	.insn	2, 0x736e
{
 1b0:	6d00                	.insn	2, 0x6d00
 1b2:	7065                	.insn	2, 0x7065
 1b4:	616d0063          	beq	s10,s6,7b4 <uart_printf+0xc>
 1b8:	6e69                	.insn	2, 0x6e69
 1ba:	6200                	.insn	2, 0x6200
 1bc:	695f7073          	csrci	0x695,30
 1c0:	7172                	.insn	2, 0x7172
 1c2:	655f 616e 6c62      	.insn	6, 0x6c62616e655f
    for (int i = 0; i < TASK_ITERS; i++) {
 1c8:	0065                	.insn	2, 0x0065
 1ca:	6f6c                	.insn	2, 0x6f6c
        uart_printf("[task1] iter=%d tick=%u\n", i, timer_count);
 1cc:	676e                	.insn	2, 0x676e
 1ce:	6c20                	.insn	2, 0x6c20
 1d0:	20676e6f          	jal	t3,763d6 <__stack_size+0x6e3d6>
    for (int i = 0; i < TASK_ITERS; i++) {
 1d4:	6e75                	.insn	2, 0x6e75
 1d6:	6e676973          	csrrsi	s2,0x6e6,14
        uart_printf("[task1] iter=%d tick=%u\n", i, timer_count);
 1da:	6465                	.insn	2, 0x6465
 1dc:	6920                	.insn	2, 0x6920
 1de:	746e                	.insn	2, 0x746e
 1e0:	7500                	.insn	2, 0x7500
 1e2:	6e69                	.insn	2, 0x6e69
 1e4:	3874                	.insn	2, 0x3874
 1e6:	745f 7300 6863      	.insn	6, 0x68637300745f
        task_yield();
 1ec:	6465                	.insn	2, 0x6465
 1ee:	695f 696e 0074      	.insn	6, 0x0074696e695f
    task_done[1] = 1;
 1f4:	7362                	.insn	2, 0x7362
 1f6:	5f70                	.insn	2, 0x5f70
 1f8:	7269                	.insn	2, 0x7269
 1fa:	5f71                	.insn	2, 0x5f71
 1fc:	6964                	.insn	2, 0x6964
 1fe:	6c626173          	csrrsi	sp,0x6c6,4
 202:	0065                	.insn	2, 0x0065
    for (;;) task_yield();
 204:	7362                	.insn	2, 0x7362
 206:	5f70                	.insn	2, 0x5f70
 208:	6e69                	.insn	2, 0x6e69
 20a:	7469                	.insn	2, 0x7469
{
 20c:	7400                	.insn	2, 0x7400
 20e:	7361                	.insn	2, 0x7361
 210:	6c00316b          	.insn	4, 0x6c00316b
 214:	20676e6f          	jal	t3,7641a <__stack_size+0x6e41a>
 218:	6f6c                	.insn	2, 0x6f6c
 21a:	676e                	.insn	2, 0x676e
 21c:	6920                	.insn	2, 0x6920
 21e:	746e                	.insn	2, 0x746e
 220:	6400                	.insn	2, 0x6400
 222:	6165                	.insn	2, 0x6165
    for (int i = 0; i < TASK_ITERS; i++) {
 224:	6c64                	.insn	2, 0x6c64
 226:	6e69                	.insn	2, 0x6e69
        uart_printf("[task0] iter=%d tick=%u\n", i, timer_count);
 228:	0065                	.insn	2, 0x0065
 22a:	6e696c63          	bltu	s2,t1,922 <uart_printf+0x17a>
 22e:	5f74                	.insn	2, 0x5f74
    for (int i = 0; i < TASK_ITERS; i++) {
 230:	746d                	.insn	2, 0x746d
 232:	6d69                	.insn	2, 0x6d69
        uart_printf("[task0] iter=%d tick=%u\n", i, timer_count);
 234:	0065                	.insn	2, 0x0065
 236:	726f6873          	csrrsi	a6,mhpmevent6h,30
 23a:	2074                	.insn	2, 0x2074
 23c:	6e69                	.insn	2, 0x6e69
 23e:	0074                	.insn	2, 0x0074
 240:	736d                	.insn	2, 0x736d
 242:	6174                	.insn	2, 0x6174
    for (int i = 0; i < TASK_ITERS; i++) {
 244:	7574                	.insn	2, 0x7574
 246:	69750073          	.insn	4, 0x69750073
        task_yield();
 24a:	746e                	.insn	2, 0x746e
    for (int i = 0; i < TASK_ITERS; i++) {
 24c:	745f3233          	.insn	4, 0x745f3233
    task_done[0] = 1;
 250:	7400                	.insn	2, 0x7400
 252:	7361                	.insn	2, 0x7361
 254:	72635f6b          	.insn	4, 0x72635f6b
 258:	6165                	.insn	2, 0x6165
 25a:	6574                	.insn	2, 0x6574
    for (;;) task_yield();
 25c:	6200                	.insn	2, 0x6200
 25e:	655f7073          	csrci	hviph,30
 262:	616e                	.insn	2, 0x616e
    return *(volatile uint32_t *)addr;
 264:	6c62                	.insn	2, 0x6c62
 266:	5f65                	.insn	2, 0x5f65
 268:	6974                	.insn	2, 0x6974
 26a:	656d                	.insn	2, 0x656d
 26c:	5f72                	.insn	2, 0x5f72
 26e:	6e69                	.insn	2, 0x6e69
 270:	6574                	.insn	2, 0x6574
 272:	7272                	.insn	2, 0x7272
 274:	7075                	.insn	2, 0x7075
 276:	0074                	.insn	2, 0x0074
 278:	6174                	.insn	2, 0x6174
 27a:	645f6b73          	csrrsi	s6,hvip,30
 27e:	00656e6f          	jal	t3,56284 <__stack_size+0x4e284>
    } while (hi0 != hi1);
 282:	6175                	.insn	2, 0x6175
    uint64_t deadline = clint_mtime() + delta_ticks;
 284:	7472                	.insn	2, 0x7472
 286:	705f 7475 0073      	.insn	6, 0x00737475705f
 28c:	63617473          	csrrci	s0,0x636,2
 290:	6300736b          	.insn	4, 0x6300736b
 294:	7275                	.insn	2, 0x7275
 296:	745f 7361 006b      	.insn	6, 0x006b7361745f
    *(volatile uint32_t *)addr = v;
 29c:	65686373          	csrrsi	t1,hviprio1h,16
 2a0:	5f64                	.insn	2, 0x5f64
 2a2:	74697773          	csrrci	a4,0x746,18
 2a6:	73006863          	bltu	zero,a6,9d6 <uart_printf+0x22e>
 2aa:	64656863          	bltu	a0,t1,8fa <uart_printf+0x152>
 2ae:	635f 7874 6e00      	.insn	6, 0x6e007874635f
    timer_count++;
 2b4:	7865                	.insn	2, 0x7865
 2b6:	0074                	.insn	2, 0x0074
 2b8:	746e                	.insn	2, 0x746e
 2ba:	7361                	.insn	2, 0x7361
 2bc:	7000736b          	.insn	4, 0x7000736b
 2c0:	6572                	.insn	2, 0x6572
 2c2:	0076                	.insn	2, 0x0076
    clint_schedule_relative(TICK_INTERVAL_TICKS);
 2c4:	6d6f682f          	.insn	4, 0x6d6f682f
{
 2c8:	2f65                	.insn	2, 0x2f65
 2ca:	6379                	.insn	2, 0x6379
 2cc:	2f78                	.insn	2, 0x2f78
 2ce:	4952                	.insn	2, 0x4952
 2d0:	562d4353          	.insn	4, 0x562d4353
 2d4:	632d                	.insn	2, 0x632d
 2d6:	7570                	.insn	2, 0x7570
    bsp_init();
 2d8:	2f77732f          	.insn	4, 0x2f77732f
    uart_puts("os_demo boot\n");
 2dc:	7270                	.insn	2, 0x7270
 2de:	6172676f          	jal	a4,270f4 <__stack_size+0x1f0f4>
 2e2:	736d                	.insn	2, 0x736d
 2e4:	5f736f2f          	.insn	4, 0x5f736f2f
    bsp_set_timer_handler(timer_tick);
 2e8:	6564                	.insn	2, 0x6564
 2ea:	6f6d                	.insn	2, 0x6f6d
 2ec:	6977732f          	.insn	4, 0x6977732f
    clint_schedule_relative(TICK_INTERVAL_TICKS);
 2f0:	6374                	.insn	2, 0x6374
 2f2:	2e68                	.insn	2, 0x2e68
    bsp_enable_timer_interrupt();
 2f4:	682f0053          	.insn	4, 0x682f0053
    bsp_irq_enable();
 2f8:	2f656d6f          	jal	s10,565ee <__stack_size+0x4e5ee>
    sched_init();
 2fc:	6379                	.insn	2, 0x6379
 2fe:	2f78                	.insn	2, 0x2f78
    if (task_create(task0) < 0 || task_create(task1) < 0) {
 300:	4952                	.insn	2, 0x4952
 302:	562d4353          	.insn	4, 0x562d4353
 306:	632d                	.insn	2, 0x632d
 308:	7570                	.insn	2, 0x7570
 30a:	2f77732f          	.insn	4, 0x2f77732f
 30e:	7270                	.insn	2, 0x7270
 310:	6172676f          	jal	a4,27126 <__stack_size+0x1f126>
 314:	736d                	.insn	2, 0x736d
 316:	5f736f2f          	.insn	4, 0x5f736f2f
    while (!(task_done[0] && task_done[1])) {
 31a:	6564                	.insn	2, 0x6564
 31c:	6f6d                	.insn	2, 0x6f6d
 31e:	4700                	.insn	2, 0x4700
 320:	554e                	.insn	2, 0x554e
 322:	4120                	.insn	2, 0x4120
 324:	2e322053          	.insn	4, 0x2e322053
 328:	3234                	.insn	2, 0x3234
 32a:	6300                	.insn	2, 0x6300
 32c:	696c                	.insn	2, 0x696c
 32e:	746e                	.insn	2, 0x746e
    bsp_irq_disable();
 330:	635f 656c 7261      	.insn	6, 0x7261656c635f
    uart_printf("os_demo: all tasks finished (ticks=%u)\n", timer_count);
 336:	695f 6970 6500      	.insn	6, 0x65006970695f
 33c:	6378                	.insn	2, 0x6378
 33e:	685f 6e61 6c64      	.insn	6, 0x6c646e61685f
 344:	7265                	.insn	2, 0x7265
 346:	73620073          	.insn	4, 0x73620073
    uart_puts("OS_DEMO_PASS\n");
 34a:	5f70                	.insn	2, 0x5f70
 34c:	5f746573          	csrrsi	a0,0x5f7,8
 350:	74666f73          	csrrsi	t5,0x746,12
        __asm__ volatile("wfi");
 354:	685f 6e61 6c64      	.insn	6, 0x6c646e61685f
    for (;;) {
 35a:	7265                	.insn	2, 0x7265
        uart_puts("os_demo: task_create failed\n");
 35c:	6400                	.insn	2, 0x6400
 35e:	6665                	.insn	2, 0x6665
 360:	7561                	.insn	2, 0x7561
 362:	746c                	.insn	2, 0x746c
 364:	695f 7172 6200      	.insn	6, 0x62007172695f
        for (;;) {}
 36a:	655f7073          	csrci	hviph,30
        task_yield();
 36e:	616e                	.insn	2, 0x616e
 370:	6c62                	.insn	2, 0x6c62
 372:	5f65                	.insn	2, 0x5f65
    ntasks   = 1;
 374:	74666f73          	csrrsi	t5,0x746,12
 378:	65726177          	.insn	4, 0x65726177
    cur_task = 0;
 37c:	695f 746e 7265      	.insn	6, 0x7265746e695f
 382:	7572                	.insn	2, 0x7572
}
 384:	7470                	.insn	2, 0x7470
 386:	6200                	.insn	2, 0x6200
{
 388:	735f7073          	csrci	mhpmevent21h,30
    if (ntasks >= SCHED_MAX_TASKS) {
 38c:	7465                	.insn	2, 0x7465
 38e:	655f 6378 7065      	.insn	6, 0x70656378655f
 394:	6974                	.insn	2, 0x6974
 396:	685f6e6f          	jal	t3,f721a <__stack_size+0xef21a>
    int id = ntasks++;
 39a:	6e61                	.insn	2, 0x6e61
 39c:	6c64                	.insn	2, 0x6c64
 39e:	7265                	.insn	2, 0x7265
    struct sched_ctx *c = &tasks[id];
 3a0:	6300                	.insn	2, 0x6300
 3a2:	0065646f          	jal	s0,563a8 <__stack_size+0x4e3a8>
 3a6:	6c70                	.insn	2, 0x6c70
 3a8:	6369                	.insn	2, 0x6369
 3aa:	635f 6d6f 6c70      	.insn	6, 0x6c706d6f635f
 3b0:	7465                	.insn	2, 0x7465
 3b2:	0065                	.insn	2, 0x0065
 3b4:	7362                	.insn	2, 0x7362
 3b6:	5f70                	.insn	2, 0x5f70
 3b8:	5f746573          	csrrsi	a0,0x5f7,8
        p[i] = 0;
 3bc:	7269                	.insn	2, 0x7269
 3be:	5f71                	.insn	2, 0x5f71
    for (unsigned i = 0; i < sizeof(*c) / sizeof(uint32_t); i++) {
 3c0:	6168                	.insn	2, 0x6168
 3c2:	646e                	.insn	2, 0x646e
 3c4:	656c                	.insn	2, 0x656c
 3c6:	0072                	.insn	2, 0x0072
    c->ra = (uint32_t)(uintptr_t)entry;
 3c8:	6c70                	.insn	2, 0x6c70
 3ca:	6369                	.insn	2, 0x6369
 3cc:	635f 616c 6d69      	.insn	6, 0x6d69616c635f
    c->sp = (uint32_t)(uintptr_t)&stacks[id][SCHED_STACK_SIZE];
 3d2:	6400                	.insn	2, 0x6400
    c->ra = (uint32_t)(uintptr_t)entry;
 3d4:	6665                	.insn	2, 0x6665
 3d6:	7561                	.insn	2, 0x7561
    c->sp = (uint32_t)(uintptr_t)&stacks[id][SCHED_STACK_SIZE];
 3d8:	746c                	.insn	2, 0x746c
 3da:	735f 666f 0074      	.insn	6, 0x0074666f735f
 3e0:	7362                	.insn	2, 0x7362
 3e2:	5f70                	.insn	2, 0x5f70
    c->ra = (uint32_t)(uintptr_t)entry;
 3e4:	7269                	.insn	2, 0x7269
 3e6:	5f71                	.insn	2, 0x5f71
    c->sp = (uint32_t)(uintptr_t)&stacks[id][SCHED_STACK_SIZE];
 3e8:	6168                	.insn	2, 0x6168
 3ea:	646e                	.insn	2, 0x646e
    return id;
 3ec:	656c                	.insn	2, 0x656c
 3ee:	5f72                	.insn	2, 0x5f72
        return -1;
 3f0:	0074                	.insn	2, 0x0074
 3f2:	6564                	.insn	2, 0x6564
}
 3f4:	6166                	.insn	2, 0x6166
 3f6:	6c75                	.insn	2, 0x6c75
    if (ntasks <= 1) return;
 3f8:	5f74                	.insn	2, 0x5f74
 3fa:	6974                	.insn	2, 0x6974
 3fc:	656d                	.insn	2, 0x656d
 3fe:	0072                	.insn	2, 0x0072
 400:	7362                	.insn	2, 0x7362
 402:	5f70                	.insn	2, 0x5f70
    int prev = cur_task;
 404:	7274                	.insn	2, 0x7274
 406:	7061                	.insn	2, 0x7061
 408:	655f 746e 7972      	.insn	6, 0x7972746e655f
    sched_switch(&tasks[prev], &tasks[next]);
 40e:	6400                	.insn	2, 0x6400
 410:	6665                	.insn	2, 0x6665
 412:	7561                	.insn	2, 0x7561
    int next = (cur_task + 1) % ntasks;
 414:	746c                	.insn	2, 0x746c
 416:	655f 6378 7065      	.insn	6, 0x70656378655f
    cur_task = next;
 41c:	6974                	.insn	2, 0x6974
 41e:	64006e6f          	jal	t3,6a5e <_data_lma+0x5ef2>
    sched_switch(&tasks[prev], &tasks[next]);
 422:	6665                	.insn	2, 0x6665
 424:	7561                	.insn	2, 0x7561
 426:	746c                	.insn	2, 0x746c
 428:	625f 6e61 656e      	.insn	6, 0x656e6e61625f
 42e:	0072                	.insn	2, 0x0072
 430:	7362                	.insn	2, 0x7362
 432:	5f70                	.insn	2, 0x5f70
 434:	7274                	.insn	2, 0x7274
 436:	7061                	.insn	2, 0x7061
}
 438:	645f 7369 6170      	.insn	6, 0x61707369645f
    sw   ra,  0(a0)
 43e:	6374                	.insn	2, 0x6374
    sw   sp,  4(a0)
 440:	0068                	.insn	2, 0x0068
 442:	7269                	.insn	2, 0x7269
    sw   s0,  8(a0)
 444:	5f71                	.insn	2, 0x5f71
 446:	6168                	.insn	2, 0x6168
    sw   s1, 12(a0)
 448:	646e                	.insn	2, 0x646e
 44a:	656c                	.insn	2, 0x656c
    sw   s2, 16(a0)
 44c:	7372                	.insn	2, 0x7372
 44e:	6c00                	.insn	2, 0x6c00
    sw   s3, 20(a0)
 450:	20676e6f          	jal	t3,76656 <__stack_size+0x6e656>
    sw   s4, 24(a0)
 454:	6f64                	.insn	2, 0x6f64
 456:	6275                	.insn	2, 0x6275
    sw   s5, 28(a0)
 458:	656c                	.insn	2, 0x656c
 45a:	6200                	.insn	2, 0x6200
    sw   s6, 32(a0)
 45c:	655f7073          	csrci	hviph,30
    sw   s7, 36(a0)
 460:	616e                	.insn	2, 0x616e
 462:	6c62                	.insn	2, 0x6c62
    sw   s8, 40(a0)
 464:	5f65                	.insn	2, 0x5f65
 466:	7865                	.insn	2, 0x7865
    sw   s9, 44(a0)
 468:	6574                	.insn	2, 0x6574
 46a:	6e72                	.insn	2, 0x6e72
    sw   s10,48(a0)
 46c:	6c61                	.insn	2, 0x6c61
 46e:	695f 746e 7265      	.insn	6, 0x7265746e695f
    lw   ra,  0(a1)
 474:	7572                	.insn	2, 0x7572
 476:	7470                	.insn	2, 0x7470
    lw   sp,  4(a1)
 478:	6400                	.insn	2, 0x6400
 47a:	6769                	.insn	2, 0x6769
    lw   s0,  8(a1)
 47c:	7469                	.insn	2, 0x7469
 47e:	5f5f0073          	.insn	4, 0x5f5f0073
    lw   s1, 12(a1)
 482:	7562                	.insn	2, 0x7562
    lw   s2, 16(a1)
 484:	6c69                	.insn	2, 0x6c69
 486:	6974                	.insn	2, 0x6974
    lw   s3, 20(a1)
 488:	5f6e                	.insn	2, 0x5f6e
 48a:	6176                	.insn	2, 0x6176
    lw   s4, 24(a1)
 48c:	6c5f 7369 0074      	.insn	6, 0x007473696c5f
    lw   s5, 28(a1)
 492:	6964                	.insn	2, 0x6964
    lw   s6, 32(a1)
 494:	73746967          	.insn	4, 0x73746967
    lw   s7, 36(a1)
 498:	755f 7070 7265      	.insn	6, 0x72657070755f
    lw   s8, 40(a1)
 49e:	6400                	.insn	2, 0x6400
    lw   s9, 44(a1)
 4a0:	6769                	.insn	2, 0x6769
 4a2:	7469                	.insn	2, 0x7469
    lw   s10,48(a1)
 4a4:	6f6c5f73          	csrrwi	t5,0x6f6,24
    lw   s11,52(a1)
 4a8:	00726577          	.insn	4, 0x00726577
    ret
 4ac:	6170                	.insn	2, 0x6170
 4ae:	5f64                	.insn	2, 0x5f64
{
 4b0:	74646977          	.insn	4, 0x74646977
 4b4:	0068                	.insn	2, 0x0068
 4b6:	5f5f 6e67 6375      	.insn	6, 0x63756e675f5f
    uart_puts("\n[bsp] UNHANDLED TRAP: ");
 4bc:	765f 5f61 696c      	.insn	6, 0x696c5f61765f
 4c2:	75007473          	csrrci	s0,0x750,0
{
 4c6:	7261                	.insn	2, 0x7261
 4c8:	5f74                	.insn	2, 0x5f74
 4ca:	63746567          	.insn	4, 0x63746567
 4ce:	6e5f 0062 6162      	.insn	6, 0x616200626e5f
    uart_puts(tag);
 4d4:	70006573          	csrrsi	a0,0x700,0
 4d8:	7475                	.insn	2, 0x7475
 4da:	755f 6e69 0074      	.insn	6, 0x00746e69755f
    uart_printf("  mcause=0x%08x  mepc=0x%08x  mtval=0x%08x  mstatus=0x%08x\n",
 4e0:	7075                	.insn	2, 0x7075
 4e2:	6570                	.insn	2, 0x6570
 4e4:	5f72                	.insn	2, 0x5f72
 4e6:	65736163          	bltu	t1,s7,b28 <uart_printf+0x380>
 4ea:	7000                	.insn	2, 0x7000
 4ec:	7475                	.insn	2, 0x7475
 4ee:	695f 746e 7500      	.insn	6, 0x7500746e695f
 4f4:	7261                	.insn	2, 0x7261
 4f6:	5f74                	.insn	2, 0x5f74
    for (;;) {
 4f8:	7570                	.insn	2, 0x7570
 4fa:	6374                	.insn	2, 0x6374
    default_banner(f, "exception");
 4fc:	7000                	.insn	2, 0x7000
 4fe:	6461                	.insn	2, 0x6461
{
 500:	635f 6168 0072      	.insn	6, 0x00726168635f
    default_banner(f, "exception");
 506:	6d6f682f          	.insn	4, 0x6d6f682f
{
 50a:	2f65                	.insn	2, 0x2f65
    default_banner(f, "exception");
 50c:	6379                	.insn	2, 0x6379
 50e:	2f78                	.insn	2, 0x2f78
{
 510:	4952                	.insn	2, 0x4952
 512:	562d4353          	.insn	4, 0x562d4353
 516:	632d                	.insn	2, 0x632d
 518:	7570                	.insn	2, 0x7570
 51a:	2f77732f          	.insn	4, 0x2f77732f
    default_banner(f, "unhandled msi");
 51e:	7362                	.insn	2, 0x7362
 520:	2f70                	.insn	2, 0x2f70
 522:	2f637273          	csrrci	tp,0x2f6,6
 526:	72617473          	csrrci	s0,mhpmevent6h,2
 52a:	2e74                	.insn	2, 0x2e74
{
 52c:	735f0053          	.insn	4, 0x735f0053
 530:	6174                	.insn	2, 0x6174
 532:	7472                	.insn	2, 0x7472
 534:	2f00                	.insn	2, 0x2f00
 536:	6f68                	.insn	2, 0x6f68
 538:	656d                	.insn	2, 0x656d
 53a:	7863792f          	.insn	4, 0x7863792f
 53e:	5349522f          	.insn	4, 0x5349522f
    default_banner(f, "unhandled mti");
 542:	2d562d43          	.insn	4, 0x2d562d43
 546:	2f757063          	bgeu	a0,s7,826 <uart_printf+0x7e>
 54a:	622f7773          	csrrci	a4,0x622,30
 54e:	732f7073          	csrci	mhpmevent18h,30
 552:	6372                	.insn	2, 0x6372
void bsp_set_timer_handler(bsp_trap_handler_t h) { timer_handler = h; }
 554:	6172742f          	.insn	4, 0x6172742f
 558:	5f70                	.insn	2, 0x5f70
 55a:	6e65                	.insn	2, 0x6e65
void bsp_irq_enable(void)  { csr_set(mstatus, MSTATUS_MIE); }
 55c:	7274                	.insn	2, 0x7274
 55e:	2e79                	.insn	2, 0x2e79
 560:	Address 0x560 is out of bounds.


Disassembly of section .debug_line_str:

00000000 <.debug_line_str>:
    la      gp, __global_pointer$
   0:	6d6f682f          	.insn	4, 0x6d6f682f
   4:	2f65                	.insn	2, 0x2f65
   6:	6379                	.insn	2, 0x6379
    la      sp, __stack_top
   8:	2f78                	.insn	2, 0x2f78
   a:	4952                	.insn	2, 0x4952
   c:	562d4353          	.insn	4, 0x562d4353
    la      a0, _data_lma
  10:	632d                	.insn	2, 0x632d
  12:	7570                	.insn	2, 0x7570
  14:	2f77732f          	.insn	4, 0x2f77732f
    la      a1, _data
  18:	7270                	.insn	2, 0x7270
  1a:	6172676f          	jal	a4,26e30 <__stack_size+0x1ee30>
  1e:	736d                	.insn	2, 0x736d
    la      a2, _edata
  20:	5f736f2f          	.insn	4, 0x5f736f2f
  24:	6564                	.insn	2, 0x6564
  26:	6f6d                	.insn	2, 0x6f6d
    bgeu    a1, a2, 2f
  28:	2f00                	.insn	2, 0x2f00
  2a:	6f68                	.insn	2, 0x6f68
    lw      t0, 0(a0)
  2c:	656d                	.insn	2, 0x656d
  2e:	7863792f          	.insn	4, 0x7863792f
    sw      t0, 0(a1)
  32:	5349522f          	.insn	4, 0x5349522f
    addi    a0, a0, 4
  36:	2d562d43          	.insn	4, 0x2d562d43
    addi    a1, a1, 4
  3a:	2f757063          	bgeu	a0,s7,31a <main+0x52>
    bltu    a1, a2, 1b
  3e:	702f7773          	csrrci	a4,0x702,30
    la      a0, _fbss
  42:	6f72                	.insn	2, 0x6f72
  44:	6d617267          	.insn	4, 0x6d617267
    la      a1, _end
  48:	736f2f73          	csrrs	t5,mhpmevent22h,t5
  4c:	645f 6d65 2f6f      	.insn	6, 0x2f6f6d65645f
    bgeu    a0, a1, 2f
  52:	616d                	.insn	2, 0x616d
    sw      zero, 0(a0)
  54:	6e69                	.insn	2, 0x6e69
  56:	632e                	.insn	2, 0x632e
    addi    a0, a0, 4
  58:	2f00                	.insn	2, 0x2f00
  5a:	6f68                	.insn	2, 0x6f68
    bltu    a0, a1, 1b
  5c:	656d                	.insn	2, 0x656d
  5e:	7863792f          	.insn	4, 0x7863792f
    call    main
  62:	5349522f          	.insn	4, 0x5349522f
    j       .L_halt
  66:	2d562d43          	.insn	4, 0x2d562d43
  6a:	2f757063          	bgeu	a0,s7,34a <main+0x82>
  6e:	622f7773          	csrrci	a4,0x622,30
    addi    sp, sp, -FRAME_SIZE
  72:	692f7073          	csrci	0x692,30
    sw      x1,  OFF_X(1)(sp)
  76:	636e                	.insn	2, 0x636e
    sw      x2,  OFF_X(2)(sp)            /* original sp is sp+FRAME_SIZE */
  78:	756c                	.insn	2, 0x756c
  7a:	6564                	.insn	2, 0x6564
    sw      x3,  OFF_X(3)(sp)
  7c:	7073622f          	.insn	4, 0x7073622f
    sw      x4,  OFF_X(4)(sp)
  80:	2f00                	.insn	2, 0x2f00
  82:	7375                	.insn	2, 0x7375
    sw      x5,  OFF_X(5)(sp)
  84:	2f72                	.insn	2, 0x2f72
  86:	696c                	.insn	2, 0x696c
    sw      x6,  OFF_X(6)(sp)
  88:	2f62                	.insn	2, 0x2f62
  8a:	2f636367          	.insn	4, 0x2f636367
    sw      x7,  OFF_X(7)(sp)
  8e:	6972                	.insn	2, 0x6972
    sw      x8,  OFF_X(8)(sp)
  90:	36766373          	csrrsi	t1,0x367,12
    sw      x9,  OFF_X(9)(sp)
  94:	2d34                	.insn	2, 0x2d34
  96:	6e75                	.insn	2, 0x6e75
    sw      x10, OFF_X(10)(sp)
  98:	776f6e6b          	.insn	4, 0x776f6e6b
    sw      x11, OFF_X(11)(sp)
  9c:	2d6e                	.insn	2, 0x2d6e
  9e:	6c65                	.insn	2, 0x6c65
    sw      x12, OFF_X(12)(sp)
  a0:	2f66                	.insn	2, 0x2f66
  a2:	3331                	.insn	2, 0x3331
    sw      x13, OFF_X(13)(sp)
  a4:	322e                	.insn	2, 0x322e
  a6:	302e                	.insn	2, 0x302e
    sw      x14, OFF_X(14)(sp)
  a8:	636e692f          	.insn	4, 0x636e692f
    sw      x15, OFF_X(15)(sp)
  ac:	756c                	.insn	2, 0x756c
  ae:	6564                	.insn	2, 0x6564
    sw      x16, OFF_X(16)(sp)
  b0:	6300                	.insn	2, 0x6300
  b2:	696c                	.insn	2, 0x696c
    sw      x17, OFF_X(17)(sp)
  b4:	746e                	.insn	2, 0x746e
  b6:	682e                	.insn	2, 0x682e
    sw      x18, OFF_X(18)(sp)
  b8:	6200                	.insn	2, 0x6200
  ba:	682e7073          	csrci	0x682,28
    sw      x19, OFF_X(19)(sp)
  be:	7300                	.insn	2, 0x7300
    sw      x20, OFF_X(20)(sp)
  c0:	6474                	.insn	2, 0x6474
  c2:	6e69                	.insn	2, 0x6e69
    sw      x21, OFF_X(21)(sp)
  c4:	2e74                	.insn	2, 0x2e74
  c6:	0068                	.insn	2, 0x0068
    sw      x22, OFF_X(22)(sp)
  c8:	7274                	.insn	2, 0x7274
  ca:	7061                	.insn	2, 0x7061
    sw      x23, OFF_X(23)(sp)
  cc:	682e                	.insn	2, 0x682e
  ce:	7300                	.insn	2, 0x7300
    sw      x24, OFF_X(24)(sp)
  d0:	64656863          	bltu	a0,t1,720 <put_uint+0x50>
    sw      x25, OFF_X(25)(sp)
  d4:	682e                	.insn	2, 0x682e
  d6:	7500                	.insn	2, 0x7500
    sw      x26, OFF_X(26)(sp)
  d8:	7261                	.insn	2, 0x7261
  da:	2e74                	.insn	2, 0x2e74
    sw      x27, OFF_X(27)(sp)
  dc:	0068                	.insn	2, 0x0068
  de:	6d6f682f          	.insn	4, 0x6d6f682f
    sw      x28, OFF_X(28)(sp)
  e2:	2f65                	.insn	2, 0x2f65
    sw      x29, OFF_X(29)(sp)
  e4:	6379                	.insn	2, 0x6379
  e6:	2f78                	.insn	2, 0x2f78
    sw      x30, OFF_X(30)(sp)
  e8:	4952                	.insn	2, 0x4952
  ea:	562d4353          	.insn	4, 0x562d4353
    sw      x31, OFF_X(31)(sp)
  ee:	632d                	.insn	2, 0x632d
    addi    t0, sp, FRAME_SIZE
  f0:	7570                	.insn	2, 0x7570
  f2:	2f77732f          	.insn	4, 0x2f77732f
    sw      t0, OFF_X(2)(sp)
  f6:	7270                	.insn	2, 0x7270
    csrr    t0, mepc
  f8:	6172676f          	jal	a4,26f0e <__stack_size+0x1ef0e>
    sw      t0, OFF_MEPC(sp)
  fc:	736d                	.insn	2, 0x736d
  fe:	5f736f2f          	.insn	4, 0x5f736f2f
    csrr    t0, mcause
 102:	6564                	.insn	2, 0x6564
    sw      t0, OFF_MCAUSE(sp)
 104:	6f6d                	.insn	2, 0x6f6d
 106:	6863732f          	.insn	4, 0x6863732f
    csrr    t0, mtval
 10a:	6465                	.insn	2, 0x6465
    sw      t0, OFF_MTVAL(sp)
 10c:	632e                	.insn	2, 0x632e
 10e:	7300                	.insn	2, 0x7300
    csrr    t0, mstatus
 110:	63746977          	.insn	4, 0x63746977
    sw      t0, OFF_MSTATUS(sp)
 114:	2e68                	.insn	2, 0x2e68
 116:	682f0053          	.insn	4, 0x682f0053
    mv      a0, sp
 11a:	2f656d6f          	jal	s10,56410 <__stack_size+0x4e410>
    call    bsp_trap_dispatch
 11e:	6379                	.insn	2, 0x6379
    lw      t0, OFF_MEPC(sp)
 120:	2f78                	.insn	2, 0x2f78
 122:	4952                	.insn	2, 0x4952
    csrw    mepc, t0
 124:	562d4353          	.insn	4, 0x562d4353
    lw      t0, OFF_MSTATUS(sp)
 128:	632d                	.insn	2, 0x632d
 12a:	7570                	.insn	2, 0x7570
    csrw    mstatus, t0
 12c:	2f77732f          	.insn	4, 0x2f77732f
    lw      x1,  OFF_X(1)(sp)
 130:	7362                	.insn	2, 0x7362
 132:	2f70                	.insn	2, 0x2f70
    lw      x3,  OFF_X(3)(sp)
 134:	2f637273          	csrrci	tp,0x2f6,6
    lw      x4,  OFF_X(4)(sp)
 138:	7274                	.insn	2, 0x7274
 13a:	7061                	.insn	2, 0x7061
    lw      x5,  OFF_X(5)(sp)
 13c:	632e                	.insn	2, 0x632e
 13e:	2f00                	.insn	2, 0x2f00
    lw      x6,  OFF_X(6)(sp)
 140:	6f68                	.insn	2, 0x6f68
 142:	656d                	.insn	2, 0x656d
    lw      x7,  OFF_X(7)(sp)
 144:	7863792f          	.insn	4, 0x7863792f
    lw      x8,  OFF_X(8)(sp)
 148:	5349522f          	.insn	4, 0x5349522f
    lw      x9,  OFF_X(9)(sp)
 14c:	2d562d43          	.insn	4, 0x2d562d43
    lw      x10, OFF_X(10)(sp)
 150:	2f757063          	bgeu	a0,s7,430 <task_yield+0x38>
    lw      x11, OFF_X(11)(sp)
 154:	622f7773          	csrrci	a4,0x622,30
    lw      x12, OFF_X(12)(sp)
 158:	732f7073          	csrci	mhpmevent18h,30
    lw      x13, OFF_X(13)(sp)
 15c:	6372                	.insn	2, 0x6372
 15e:	7000                	.insn	2, 0x7000
    lw      x14, OFF_X(14)(sp)
 160:	696c                	.insn	2, 0x696c
 162:	00682e63          	.insn	4, 0x00682e63
    lw      x15, OFF_X(15)(sp)
 166:	6d6f682f          	.insn	4, 0x6d6f682f
    lw      x16, OFF_X(16)(sp)
 16a:	2f65                	.insn	2, 0x2f65
    lw      x17, OFF_X(17)(sp)
 16c:	6379                	.insn	2, 0x6379
 16e:	2f78                	.insn	2, 0x2f78
    lw      x18, OFF_X(18)(sp)
 170:	4952                	.insn	2, 0x4952
 172:	562d4353          	.insn	4, 0x562d4353
    lw      x19, OFF_X(19)(sp)
 176:	632d                	.insn	2, 0x632d
    lw      x20, OFF_X(20)(sp)
 178:	7570                	.insn	2, 0x7570
 17a:	2f77732f          	.insn	4, 0x2f77732f
    lw      x21, OFF_X(21)(sp)
 17e:	7362                	.insn	2, 0x7362
    lw      x22, OFF_X(22)(sp)
 180:	2f70                	.insn	2, 0x2f70
 182:	2f637273          	csrrci	tp,0x2f6,6
    lw      x23, OFF_X(23)(sp)
 186:	6175                	.insn	2, 0x6175
    lw      x24, OFF_X(24)(sp)
 188:	7472                	.insn	2, 0x7472
 18a:	632e                	.insn	2, 0x632e
    lw      x25, OFF_X(25)(sp)
 18c:	7300                	.insn	2, 0x7300
 18e:	6474                	.insn	2, 0x6474
    lw      x26, OFF_X(26)(sp)
 190:	7261                	.insn	2, 0x7261
 192:	00682e67          	.insn	4, 0x00682e67
    lw      x27, OFF_X(27)(sp)
 196:	72617473          	csrrci	s0,mhpmevent6h,2
    lw      x28, OFF_X(28)(sp)
 19a:	2e74                	.insn	2, 0x2e74
    lw      x29, OFF_X(29)(sp)
 19c:	72740053          	.insn	4, 0x72740053
    lw      x30, OFF_X(30)(sp)
 1a0:	7061                	.insn	2, 0x7061
 1a2:	655f 746e 7972      	.insn	6, 0x7972746e655f
    addi    sp, sp, FRAME_SIZE
 1a8:	532e                	.insn	2, 0x532e
	...

Disassembly of section .debug_frame:

00000000 <.debug_frame>:
    la      gp, __global_pointer$
   0:	000c                	.insn	2, 0x000c
   2:	0000                	.insn	2, 0x
   4:	ffff                	.insn	2, 0xffff
   6:	ffff                	.insn	2, 0xffff
    la      sp, __stack_top
   8:	7c010003          	lb	zero,1984(sp)
   c:	0d01                	.insn	2, 0x0d01
   e:	0002                	.insn	2, 0x0002
    la      a0, _data_lma
  10:	001c                	.insn	2, 0x001c
  12:	0000                	.insn	2, 0x
  14:	0000                	.insn	2, 0x
  16:	0000                	.insn	2, 0x
    la      a1, _data
  18:	01b0                	.insn	2, 0x01b0
  1a:	0000                	.insn	2, 0x
  1c:	005c                	.insn	2, 0x005c
  1e:	0000                	.insn	2, 0x
    la      a2, _edata
  20:	0e44                	.insn	2, 0x0e44
  22:	5420                	.insn	2, 0x5420
  24:	0288                	.insn	2, 0x0288
  26:	0389                	.insn	2, 0x0389
    bgeu    a1, a2, 2f
  28:	0492                	.insn	2, 0x0492
  2a:	01810593          	addi	a1,sp,24
    lw      t0, 0(a0)
  2e:	0000                	.insn	2, 0x
    sw      t0, 0(a1)
  30:	001c                	.insn	2, 0x001c
  32:	0000                	.insn	2, 0x
    addi    a0, a0, 4
  34:	0000                	.insn	2, 0x
  36:	0000                	.insn	2, 0x
    addi    a1, a1, 4
  38:	020c                	.insn	2, 0x020c
  3a:	0000                	.insn	2, 0x
    bltu    a1, a2, 1b
  3c:	0058                	.insn	2, 0x0058
  3e:	0000                	.insn	2, 0x
    la      a0, _fbss
  40:	0e44                	.insn	2, 0x0e44
  42:	5420                	.insn	2, 0x5420
  44:	0288                	.insn	2, 0x0288
  46:	0389                	.insn	2, 0x0389
    la      a1, _end
  48:	0492                	.insn	2, 0x0492
  4a:	01810593          	addi	a1,sp,24
  4e:	0000                	.insn	2, 0x
    bgeu    a0, a1, 2f
  50:	000c                	.insn	2, 0x000c
  52:	0000                	.insn	2, 0x
    sw      zero, 0(a0)
  54:	0000                	.insn	2, 0x
  56:	0000                	.insn	2, 0x
    addi    a0, a0, 4
  58:	0264                	.insn	2, 0x0264
  5a:	0000                	.insn	2, 0x
    bltu    a0, a1, 1b
  5c:	0050                	.insn	2, 0x0050
  5e:	0000                	.insn	2, 0x
    call    main
  60:	000c                	.insn	2, 0x000c
  62:	0000                	.insn	2, 0x
    j       .L_halt
  64:	0000                	.insn	2, 0x
  66:	0000                	.insn	2, 0x
  68:	02b4                	.insn	2, 0x02b4
  6a:	0000                	.insn	2, 0x
  6c:	0014                	.insn	2, 0x0014
  6e:	0000                	.insn	2, 0x
    addi    sp, sp, -FRAME_SIZE
  70:	0018                	.insn	2, 0x0018
  72:	0000                	.insn	2, 0x
    sw      x1,  OFF_X(1)(sp)
  74:	0000                	.insn	2, 0x
  76:	0000                	.insn	2, 0x
    sw      x2,  OFF_X(2)(sp)            /* original sp is sp+FRAME_SIZE */
  78:	02c8                	.insn	2, 0x02c8
  7a:	0000                	.insn	2, 0x
    sw      x3,  OFF_X(3)(sp)
  7c:	00ac                	.insn	2, 0x00ac
  7e:	0000                	.insn	2, 0x
    sw      x4,  OFF_X(4)(sp)
  80:	0e44                	.insn	2, 0x0e44
  82:	4c10                	.insn	2, 0x4c10
    sw      x5,  OFF_X(5)(sp)
  84:	0181                	.insn	2, 0x0181
  86:	0288                	.insn	2, 0x0288
    sw      x6,  OFF_X(6)(sp)
  88:	0389                	.insn	2, 0x0389
  8a:	0000                	.insn	2, 0x
    sw      x7,  OFF_X(7)(sp)
  8c:	000c                	.insn	2, 0x000c
  8e:	0000                	.insn	2, 0x
    sw      x8,  OFF_X(8)(sp)
  90:	ffff                	.insn	2, 0xffff
  92:	ffff                	.insn	2, 0xffff
    sw      x9,  OFF_X(9)(sp)
  94:	7c010003          	lb	zero,1984(sp)
    sw      x10, OFF_X(10)(sp)
  98:	0d01                	.insn	2, 0x0d01
  9a:	0002                	.insn	2, 0x0002
    sw      x11, OFF_X(11)(sp)
  9c:	000c                	.insn	2, 0x000c
  9e:	0000                	.insn	2, 0x
    sw      x12, OFF_X(12)(sp)
  a0:	008c                	.insn	2, 0x008c
  a2:	0000                	.insn	2, 0x
    sw      x13, OFF_X(13)(sp)
  a4:	0374                	.insn	2, 0x0374
  a6:	0000                	.insn	2, 0x
    sw      x14, OFF_X(14)(sp)
  a8:	0014                	.insn	2, 0x0014
  aa:	0000                	.insn	2, 0x
    sw      x15, OFF_X(15)(sp)
  ac:	000c                	.insn	2, 0x000c
  ae:	0000                	.insn	2, 0x
    sw      x16, OFF_X(16)(sp)
  b0:	008c                	.insn	2, 0x008c
  b2:	0000                	.insn	2, 0x
    sw      x17, OFF_X(17)(sp)
  b4:	0388                	.insn	2, 0x0388
  b6:	0000                	.insn	2, 0x
    sw      x18, OFF_X(18)(sp)
  b8:	0070                	.insn	2, 0x0070
  ba:	0000                	.insn	2, 0x
    sw      x19, OFF_X(19)(sp)
  bc:	000c                	.insn	2, 0x000c
  be:	0000                	.insn	2, 0x
    sw      x20, OFF_X(20)(sp)
  c0:	008c                	.insn	2, 0x008c
  c2:	0000                	.insn	2, 0x
    sw      x21, OFF_X(21)(sp)
  c4:	03f8                	.insn	2, 0x03f8
  c6:	0000                	.insn	2, 0x
    sw      x22, OFF_X(22)(sp)
  c8:	0044                	.insn	2, 0x0044
  ca:	0000                	.insn	2, 0x
    sw      x23, OFF_X(23)(sp)
  cc:	000c                	.insn	2, 0x000c
  ce:	0000                	.insn	2, 0x
    sw      x24, OFF_X(24)(sp)
  d0:	ffff                	.insn	2, 0xffff
  d2:	ffff                	.insn	2, 0xffff
    sw      x25, OFF_X(25)(sp)
  d4:	7c010003          	lb	zero,1984(sp)
    sw      x26, OFF_X(26)(sp)
  d8:	0d01                	.insn	2, 0x0d01
  da:	0002                	.insn	2, 0x0002
    sw      x27, OFF_X(27)(sp)
  dc:	0018                	.insn	2, 0x0018
  de:	0000                	.insn	2, 0x
    sw      x28, OFF_X(28)(sp)
  e0:	00cc                	.insn	2, 0x00cc
  e2:	0000                	.insn	2, 0x
    sw      x29, OFF_X(29)(sp)
  e4:	04b0                	.insn	2, 0x04b0
  e6:	0000                	.insn	2, 0x
    sw      x30, OFF_X(30)(sp)
  e8:	004c                	.insn	2, 0x004c
  ea:	0000                	.insn	2, 0x
    sw      x31, OFF_X(31)(sp)
  ec:	0e44                	.insn	2, 0x0e44
  ee:	4410                	.insn	2, 0x4410
    addi    t0, sp, FRAME_SIZE
  f0:	0288                	.insn	2, 0x0288
  f2:	8154                	.insn	2, 0x8154
    sw      t0, OFF_X(2)(sp)
  f4:	8901                	.insn	2, 0x8901
  f6:	00140003          	lb	zero,1(s0)
    csrr    t0, mepc
  fa:	0000                	.insn	2, 0x
    sw      t0, OFF_MEPC(sp)
  fc:	00cc                	.insn	2, 0x00cc
  fe:	0000                	.insn	2, 0x
    csrr    t0, mcause
 100:	04fc                	.insn	2, 0x04fc
 102:	0000                	.insn	2, 0x
    sw      t0, OFF_MCAUSE(sp)
 104:	0014                	.insn	2, 0x0014
 106:	0000                	.insn	2, 0x
    csrr    t0, mtval
 108:	0e48                	.insn	2, 0x0e48
 10a:	4810                	.insn	2, 0x4810
    sw      t0, OFF_MTVAL(sp)
 10c:	0181                	.insn	2, 0x0181
 10e:	0000                	.insn	2, 0x
    csrr    t0, mstatus
 110:	0014                	.insn	2, 0x0014
 112:	0000                	.insn	2, 0x
    sw      t0, OFF_MSTATUS(sp)
 114:	00cc                	.insn	2, 0x00cc
 116:	0000                	.insn	2, 0x
    mv      a0, sp
 118:	0510                	.insn	2, 0x0510
 11a:	0000                	.insn	2, 0x
    call    bsp_trap_dispatch
 11c:	001c                	.insn	2, 0x001c
 11e:	0000                	.insn	2, 0x
    lw      t0, OFF_MEPC(sp)
 120:	0e44                	.insn	2, 0x0e44
 122:	4410                	.insn	2, 0x4410
    csrw    mepc, t0
 124:	0181                	.insn	2, 0x0181
 126:	0000                	.insn	2, 0x
    lw      t0, OFF_MSTATUS(sp)
 128:	0014                	.insn	2, 0x0014
 12a:	0000                	.insn	2, 0x
    csrw    mstatus, t0
 12c:	00cc                	.insn	2, 0x00cc
 12e:	0000                	.insn	2, 0x
    lw      x1,  OFF_X(1)(sp)
 130:	052c                	.insn	2, 0x052c
 132:	0000                	.insn	2, 0x
    lw      x3,  OFF_X(3)(sp)
 134:	0028                	.insn	2, 0x0028
 136:	0000                	.insn	2, 0x
    lw      x4,  OFF_X(4)(sp)
 138:	0e44                	.insn	2, 0x0e44
 13a:	4410                	.insn	2, 0x4410
    lw      x5,  OFF_X(5)(sp)
 13c:	0181                	.insn	2, 0x0181
 13e:	0000                	.insn	2, 0x
    lw      x6,  OFF_X(6)(sp)
 140:	000c                	.insn	2, 0x000c
 142:	0000                	.insn	2, 0x
    lw      x7,  OFF_X(7)(sp)
 144:	00cc                	.insn	2, 0x00cc
 146:	0000                	.insn	2, 0x
    lw      x8,  OFF_X(8)(sp)
 148:	0554                	.insn	2, 0x0554
 14a:	0000                	.insn	2, 0x
    lw      x9,  OFF_X(9)(sp)
 14c:	0008                	.insn	2, 0x0008
 14e:	0000                	.insn	2, 0x
    lw      x10, OFF_X(10)(sp)
 150:	000c                	.insn	2, 0x000c
 152:	0000                	.insn	2, 0x
    lw      x11, OFF_X(11)(sp)
 154:	00cc                	.insn	2, 0x00cc
	...
    lw      x13, OFF_X(13)(sp)
 15e:	0000                	.insn	2, 0x
    lw      x14, OFF_X(14)(sp)
 160:	000c                	.insn	2, 0x000c
 162:	0000                	.insn	2, 0x
    lw      x15, OFF_X(15)(sp)
 164:	00cc                	.insn	2, 0x00cc
	...
    lw      x17, OFF_X(17)(sp)
 16e:	0000                	.insn	2, 0x
    lw      x18, OFF_X(18)(sp)
 170:	000c                	.insn	2, 0x000c
 172:	0000                	.insn	2, 0x
    lw      x19, OFF_X(19)(sp)
 174:	00cc                	.insn	2, 0x00cc
	...
    lw      x21, OFF_X(21)(sp)
 17e:	0000                	.insn	2, 0x
    lw      x22, OFF_X(22)(sp)
 180:	000c                	.insn	2, 0x000c
 182:	0000                	.insn	2, 0x
    lw      x23, OFF_X(23)(sp)
 184:	00cc                	.insn	2, 0x00cc
 186:	0000                	.insn	2, 0x
    lw      x24, OFF_X(24)(sp)
 188:	055c                	.insn	2, 0x055c
 18a:	0000                	.insn	2, 0x
    lw      x25, OFF_X(25)(sp)
 18c:	000c                	.insn	2, 0x000c
 18e:	0000                	.insn	2, 0x
    lw      x26, OFF_X(26)(sp)
 190:	000c                	.insn	2, 0x000c
 192:	0000                	.insn	2, 0x
    lw      x27, OFF_X(27)(sp)
 194:	00cc                	.insn	2, 0x00cc
 196:	0000                	.insn	2, 0x
    lw      x28, OFF_X(28)(sp)
 198:	0568                	.insn	2, 0x0568
 19a:	0000                	.insn	2, 0x
    lw      x29, OFF_X(29)(sp)
 19c:	000c                	.insn	2, 0x000c
 19e:	0000                	.insn	2, 0x
    lw      x30, OFF_X(30)(sp)
 1a0:	000c                	.insn	2, 0x000c
 1a2:	0000                	.insn	2, 0x
    lw      x31, OFF_X(31)(sp)
 1a4:	00cc                	.insn	2, 0x00cc
 1a6:	0000                	.insn	2, 0x
    addi    sp, sp, FRAME_SIZE
 1a8:	0574                	.insn	2, 0x0574
 1aa:	0000                	.insn	2, 0x
    mret
 1ac:	000c                	.insn	2, 0x000c
 1ae:	0000                	.insn	2, 0x
{
 1b0:	000c                	.insn	2, 0x000c
 1b2:	0000                	.insn	2, 0x
 1b4:	00cc                	.insn	2, 0x00cc
	...
 1be:	0000                	.insn	2, 0x
 1c0:	000c                	.insn	2, 0x000c
 1c2:	0000                	.insn	2, 0x
 1c4:	00cc                	.insn	2, 0x00cc
	...
        uart_printf("[task1] iter=%d tick=%u\n", i, timer_count);
 1ce:	0000                	.insn	2, 0x
 1d0:	0040                	.insn	2, 0x0040
 1d2:	0000                	.insn	2, 0x
    for (int i = 0; i < TASK_ITERS; i++) {
 1d4:	00cc                	.insn	2, 0x00cc
 1d6:	0000                	.insn	2, 0x
        uart_printf("[task1] iter=%d tick=%u\n", i, timer_count);
 1d8:	0580                	.insn	2, 0x0580
 1da:	0000                	.insn	2, 0x
 1dc:	0100                	.insn	2, 0x0100
 1de:	0000                	.insn	2, 0x
 1e0:	0e60                	.insn	2, 0x0e60
 1e2:	4820                	.insn	2, 0x4820
 1e4:	0181                	.insn	2, 0x0181
 1e6:	0288                	.insn	2, 0x0288
    for (int i = 0; i < TASK_ITERS; i++) {
 1e8:	0e5c                	.insn	2, 0x0e5c
 1ea:	c100                	.insn	2, 0xc100
        task_yield();
 1ec:	54c8                	.insn	2, 0x54c8
 1ee:	200e                	.insn	2, 0x200e
    for (int i = 0; i < TASK_ITERS; i++) {
 1f0:	0181                	.insn	2, 0x0181
 1f2:	0288                	.insn	2, 0x0288
    task_done[1] = 1;
 1f4:	c850                	.insn	2, 0xc850
 1f6:	c144                	.insn	2, 0xc144
 1f8:	0e48                	.insn	2, 0x0e48
 1fa:	4400                	.insn	2, 0x4400
 1fc:	200e                	.insn	2, 0x200e
 1fe:	0181                	.insn	2, 0x0181
 200:	0288                	.insn	2, 0x0288
 202:	4402                	.insn	2, 0x4402
    for (;;) task_yield();
 204:	c10a                	.insn	2, 0xc10a
 206:	c844                	.insn	2, 0xc844
 208:	0e44                	.insn	2, 0x0e44
 20a:	4400                	.insn	2, 0x4400
{
 20c:	000e500b          	.insn	4, 0x000e500b
 210:	c8c1                	.insn	2, 0xc8c1
 212:	0000                	.insn	2, 0x
 214:	000c                	.insn	2, 0x000c
 216:	0000                	.insn	2, 0x
 218:	00cc                	.insn	2, 0x00cc
 21a:	0000                	.insn	2, 0x
 21c:	0680                	.insn	2, 0x0680
 21e:	0000                	.insn	2, 0x
 220:	0050                	.insn	2, 0x0050
 222:	0000                	.insn	2, 0x
    for (int i = 0; i < TASK_ITERS; i++) {
 224:	000c                	.insn	2, 0x000c
 226:	0000                	.insn	2, 0x
        uart_printf("[task0] iter=%d tick=%u\n", i, timer_count);
 228:	ffff                	.insn	2, 0xffff
 22a:	ffff                	.insn	2, 0xffff
 22c:	7c010003          	lb	zero,1984(sp)
    for (int i = 0; i < TASK_ITERS; i++) {
 230:	0d01                	.insn	2, 0x0d01
 232:	0002                	.insn	2, 0x0002
        uart_printf("[task0] iter=%d tick=%u\n", i, timer_count);
 234:	0018                	.insn	2, 0x0018
 236:	0000                	.insn	2, 0x
 238:	0224                	.insn	2, 0x0224
 23a:	0000                	.insn	2, 0x
 23c:	06d0                	.insn	2, 0x06d0
 23e:	0000                	.insn	2, 0x
 240:	00bc                	.insn	2, 0x00bc
 242:	0000                	.insn	2, 0x
    for (int i = 0; i < TASK_ITERS; i++) {
 244:	0e44                	.insn	2, 0x0e44
 246:	0230                	.insn	2, 0x0230
        task_yield();
 248:	0a48                	.insn	2, 0x0a48
 24a:	000e                	.insn	2, 0x000e
    for (int i = 0; i < TASK_ITERS; i++) {
 24c:	0b44                	.insn	2, 0x0b44
 24e:	0000                	.insn	2, 0x
    task_done[0] = 1;
 250:	000c                	.insn	2, 0x000c
 252:	0000                	.insn	2, 0x
 254:	0224                	.insn	2, 0x0224
	...
    for (;;) task_yield();
 25e:	0000                	.insn	2, 0x
 260:	000c                	.insn	2, 0x000c
 262:	0000                	.insn	2, 0x
    return *(volatile uint32_t *)addr;
 264:	0224                	.insn	2, 0x0224
 266:	0000                	.insn	2, 0x
 268:	078c                	.insn	2, 0x078c
 26a:	0000                	.insn	2, 0x
 26c:	001c                	.insn	2, 0x001c
 26e:	0000                	.insn	2, 0x
 270:	000c                	.insn	2, 0x000c
 272:	0000                	.insn	2, 0x
 274:	0224                	.insn	2, 0x0224
	...
 27e:	0000                	.insn	2, 0x
    } while (hi0 != hi1);
 280:	0038                	.insn	2, 0x0038
 282:	0000                	.insn	2, 0x
    uint64_t deadline = clint_mtime() + delta_ticks;
 284:	0224                	.insn	2, 0x0224
 286:	0000                	.insn	2, 0x
 288:	07a8                	.insn	2, 0x07a8
 28a:	0000                	.insn	2, 0x
 28c:	0238                	.insn	2, 0x0238
 28e:	0000                	.insn	2, 0x
 290:	0e44                	.insn	2, 0x0e44
 292:	6850                	.insn	2, 0x6850
 294:	0a88                	.insn	2, 0x0a88
 296:	0b89                	.insn	2, 0x0b89
    *(volatile uint32_t *)addr = v;
 298:	0c92                	.insn	2, 0x0c92
 29a:	0e940d93          	addi	s11,s0,233
 29e:	0f95                	.insn	2, 0x0f95
 2a0:	1096                	.insn	2, 0x1096
 2a2:	0981                	.insn	2, 0x0981
 2a4:	4402                	.insn	2, 0x4402
 2a6:	c10a                	.insn	2, 0xc10a
 2a8:	c844                	.insn	2, 0xc844
 2aa:	c944                	.insn	2, 0xc944
 2ac:	d244                	.insn	2, 0xd244
 2ae:	d344                	.insn	2, 0xd344
}
 2b0:	d444                	.insn	2, 0xd444
 2b2:	d544                	.insn	2, 0xd544
    timer_count++;
 2b4:	d644                	.insn	2, 0xd644
 2b6:	0e48                	.insn	2, 0x0e48
 2b8:	4400                	.insn	2, 0x4400
 2ba:	Address 0x2ba is out of bounds.

