
os_demo:     file format elf32-littleriscv


Disassembly of section .init:

00000000 <_start>:
    .type    _start, @function

_start:
.option push
.option norelax
    la      gp, __global_pointer$
   0:	20001197          	auipc	gp,0x20001
   4:	80418193          	addi	gp,gp,-2044 # 20000804 <__global_pointer$>
.option pop
    la      sp, __stack_top
   8:	20040117          	auipc	sp,0x20040
   c:	ff810113          	addi	sp,sp,-8 # 20040000 <__stack_top>

    /* ------------------------------------------------------------- */
    /* Copy .data: ROM LMA at _data_lma into RAM VMA [_data, _edata) */
    /* ------------------------------------------------------------- */
    la      a0, _data_lma
  10:	00001517          	auipc	a0,0x1
  14:	b5c50513          	addi	a0,a0,-1188 # b6c <_data_lma>
    la      a1, _data
  18:	20000597          	auipc	a1,0x20000
  1c:	fe858593          	addi	a1,a1,-24 # 20000000 <cur_task>
    la      a2, _edata
  20:	20000617          	auipc	a2,0x20000
  24:	fe460613          	addi	a2,a2,-28 # 20000004 <_edata>
    bgeu    a1, a2, 2f
  28:	00c5fc63          	bgeu	a1,a2,40 <_start+0x40>
1:
    lw      t0, 0(a0)
  2c:	00052283          	lw	t0,0(a0)
    sw      t0, 0(a1)
  30:	0055a023          	sw	t0,0(a1)
    addi    a0, a0, 4
  34:	00450513          	addi	a0,a0,4
    addi    a1, a1, 4
  38:	00458593          	addi	a1,a1,4
    bltu    a1, a2, 1b
  3c:	fec5e8e3          	bltu	a1,a2,2c <_start+0x2c>
2:

    /* ------------------------------------------------------------- */
    /* Zero-fill .bss + .sbss: [_fbss, _end)                         */
    /* ------------------------------------------------------------- */
    la      a0, _fbss
  40:	20000517          	auipc	a0,0x20000
  44:	fd050513          	addi	a0,a0,-48 # 20000010 <task_done>
    la      a1, _end
  48:	20002597          	auipc	a1,0x20002
  4c:	11858593          	addi	a1,a1,280 # 20002160 <_end>
    bgeu    a0, a1, 2f
  50:	00b57863          	bgeu	a0,a1,60 <_start+0x60>
1:
    sw      zero, 0(a0)
  54:	00052023          	sw	zero,0(a0)
    addi    a0, a0, 4
  58:	00450513          	addi	a0,a0,4
    bltu    a0, a1, 1b
  5c:	feb56ce3          	bltu	a0,a1,54 <_start+0x54>
2:

    /* ------------------------------------------------------------- */
    /* Off to C.                                                     */
    /* ------------------------------------------------------------- */
    call    main
  60:	268000ef          	jal	2c8 <main>
    /* If main ever returns, loop forever so a hang is visible in the
     * testbench.  Programs that want the sim to exit cleanly should
     * either (a) set x26=1,x27=1 before returning (legacy protocol)
     * or (b) print a UART_PASS_PATTERN banner.                       */
.L_halt:
    j       .L_halt
  64:	0000006f          	j	64 <_start+0x64>

Disassembly of section .text:

00000070 <bsp_trap_entry>:
#define OFF_MCAUSE        (33 * 4)
#define OFF_MTVAL         (34 * 4)
#define OFF_MSTATUS       (35 * 4)

bsp_trap_entry:
    addi    sp, sp, -FRAME_SIZE
  70:	f6810113          	addi	sp,sp,-152

    /* x0 slot left as-is (reads as zero). */
    sw      x1,  OFF_X(1)(sp)
  74:	00112223          	sw	ra,4(sp)
    sw      x2,  OFF_X(2)(sp)            /* original sp is sp+FRAME_SIZE */
  78:	00212423          	sw	sp,8(sp)
    sw      x3,  OFF_X(3)(sp)
  7c:	00312623          	sw	gp,12(sp)
    sw      x4,  OFF_X(4)(sp)
  80:	00412823          	sw	tp,16(sp)
    sw      x5,  OFF_X(5)(sp)
  84:	00512a23          	sw	t0,20(sp)
    sw      x6,  OFF_X(6)(sp)
  88:	00612c23          	sw	t1,24(sp)
    sw      x7,  OFF_X(7)(sp)
  8c:	00712e23          	sw	t2,28(sp)
    sw      x8,  OFF_X(8)(sp)
  90:	02812023          	sw	s0,32(sp)
    sw      x9,  OFF_X(9)(sp)
  94:	02912223          	sw	s1,36(sp)
    sw      x10, OFF_X(10)(sp)
  98:	02a12423          	sw	a0,40(sp)
    sw      x11, OFF_X(11)(sp)
  9c:	02b12623          	sw	a1,44(sp)
    sw      x12, OFF_X(12)(sp)
  a0:	02c12823          	sw	a2,48(sp)
    sw      x13, OFF_X(13)(sp)
  a4:	02d12a23          	sw	a3,52(sp)
    sw      x14, OFF_X(14)(sp)
  a8:	02e12c23          	sw	a4,56(sp)
    sw      x15, OFF_X(15)(sp)
  ac:	02f12e23          	sw	a5,60(sp)
    sw      x16, OFF_X(16)(sp)
  b0:	05012023          	sw	a6,64(sp)
    sw      x17, OFF_X(17)(sp)
  b4:	05112223          	sw	a7,68(sp)
    sw      x18, OFF_X(18)(sp)
  b8:	05212423          	sw	s2,72(sp)
    sw      x19, OFF_X(19)(sp)
  bc:	05312623          	sw	s3,76(sp)
    sw      x20, OFF_X(20)(sp)
  c0:	05412823          	sw	s4,80(sp)
    sw      x21, OFF_X(21)(sp)
  c4:	05512a23          	sw	s5,84(sp)
    sw      x22, OFF_X(22)(sp)
  c8:	05612c23          	sw	s6,88(sp)
    sw      x23, OFF_X(23)(sp)
  cc:	05712e23          	sw	s7,92(sp)
    sw      x24, OFF_X(24)(sp)
  d0:	07812023          	sw	s8,96(sp)
    sw      x25, OFF_X(25)(sp)
  d4:	07912223          	sw	s9,100(sp)
    sw      x26, OFF_X(26)(sp)
  d8:	07a12423          	sw	s10,104(sp)
    sw      x27, OFF_X(27)(sp)
  dc:	07b12623          	sw	s11,108(sp)
    sw      x28, OFF_X(28)(sp)
  e0:	07c12823          	sw	t3,112(sp)
    sw      x29, OFF_X(29)(sp)
  e4:	07d12a23          	sw	t4,116(sp)
    sw      x30, OFF_X(30)(sp)
  e8:	07e12c23          	sw	t5,120(sp)
    sw      x31, OFF_X(31)(sp)
  ec:	07f12e23          	sw	t6,124(sp)

    /* Fix up the saved x2 to reflect the pre-trap sp (sp+FRAME_SIZE). */
    addi    t0, sp, FRAME_SIZE
  f0:	09810293          	addi	t0,sp,152
    sw      t0, OFF_X(2)(sp)
  f4:	00512423          	sw	t0,8(sp)

    /* Snapshot the trap CSRs so the C handler can read them directly. */
    csrr    t0, mepc
  f8:	341022f3          	csrr	t0,mepc
    sw      t0, OFF_MEPC(sp)
  fc:	08512023          	sw	t0,128(sp)
    csrr    t0, mcause
 100:	342022f3          	csrr	t0,mcause
    sw      t0, OFF_MCAUSE(sp)
 104:	08512223          	sw	t0,132(sp)
    csrr    t0, mtval
 108:	343022f3          	csrr	t0,mtval
    sw      t0, OFF_MTVAL(sp)
 10c:	08512423          	sw	t0,136(sp)
    csrr    t0, mstatus
 110:	300022f3          	csrr	t0,mstatus
    sw      t0, OFF_MSTATUS(sp)
 114:	08512623          	sw	t0,140(sp)

    /* Pass &frame as the first argument. */
    mv      a0, sp
 118:	00010513          	mv	a0,sp
    call    bsp_trap_dispatch
 11c:	464000ef          	jal	580 <bsp_trap_dispatch>

    /* Handlers may rewrite frame.mepc (e.g. to skip past an ecall).   */
    lw      t0, OFF_MEPC(sp)
 120:	08012283          	lw	t0,128(sp)
    csrw    mepc, t0
 124:	34129073          	csrw	mepc,t0
    lw      t0, OFF_MSTATUS(sp)
 128:	08c12283          	lw	t0,140(sp)
    csrw    mstatus, t0
 12c:	30029073          	csrw	mstatus,t0

    lw      x1,  OFF_X(1)(sp)
 130:	00412083          	lw	ra,4(sp)
    /* x2 (sp) is NOT reloaded from the frame: we want it to point at
     * sp+FRAME_SIZE after the matching `addi sp, sp, +FRAME_SIZE` at
     * the bottom.  Reloading the stored sp here would just undo the
     * save sequence.                                                  */
    lw      x3,  OFF_X(3)(sp)
 134:	00c12183          	lw	gp,12(sp)
    lw      x4,  OFF_X(4)(sp)
 138:	01012203          	lw	tp,16(sp)
    lw      x5,  OFF_X(5)(sp)
 13c:	01412283          	lw	t0,20(sp)
    lw      x6,  OFF_X(6)(sp)
 140:	01812303          	lw	t1,24(sp)
    lw      x7,  OFF_X(7)(sp)
 144:	01c12383          	lw	t2,28(sp)
    lw      x8,  OFF_X(8)(sp)
 148:	02012403          	lw	s0,32(sp)
    lw      x9,  OFF_X(9)(sp)
 14c:	02412483          	lw	s1,36(sp)
    lw      x10, OFF_X(10)(sp)
 150:	02812503          	lw	a0,40(sp)
    lw      x11, OFF_X(11)(sp)
 154:	02c12583          	lw	a1,44(sp)
    lw      x12, OFF_X(12)(sp)
 158:	03012603          	lw	a2,48(sp)
    lw      x13, OFF_X(13)(sp)
 15c:	03412683          	lw	a3,52(sp)
    lw      x14, OFF_X(14)(sp)
 160:	03812703          	lw	a4,56(sp)
    lw      x15, OFF_X(15)(sp)
 164:	03c12783          	lw	a5,60(sp)
    lw      x16, OFF_X(16)(sp)
 168:	04012803          	lw	a6,64(sp)
    lw      x17, OFF_X(17)(sp)
 16c:	04412883          	lw	a7,68(sp)
    lw      x18, OFF_X(18)(sp)
 170:	04812903          	lw	s2,72(sp)
    lw      x19, OFF_X(19)(sp)
 174:	04c12983          	lw	s3,76(sp)
    lw      x20, OFF_X(20)(sp)
 178:	05012a03          	lw	s4,80(sp)
    lw      x21, OFF_X(21)(sp)
 17c:	05412a83          	lw	s5,84(sp)
    lw      x22, OFF_X(22)(sp)
 180:	05812b03          	lw	s6,88(sp)
    lw      x23, OFF_X(23)(sp)
 184:	05c12b83          	lw	s7,92(sp)
    lw      x24, OFF_X(24)(sp)
 188:	06012c03          	lw	s8,96(sp)
    lw      x25, OFF_X(25)(sp)
 18c:	06412c83          	lw	s9,100(sp)
    lw      x26, OFF_X(26)(sp)
 190:	06812d03          	lw	s10,104(sp)
    lw      x27, OFF_X(27)(sp)
 194:	06c12d83          	lw	s11,108(sp)
    lw      x28, OFF_X(28)(sp)
 198:	07012e03          	lw	t3,112(sp)
    lw      x29, OFF_X(29)(sp)
 19c:	07412e83          	lw	t4,116(sp)
    lw      x30, OFF_X(30)(sp)
 1a0:	07812f03          	lw	t5,120(sp)
    lw      x31, OFF_X(31)(sp)
 1a4:	07c12f83          	lw	t6,124(sp)

    addi    sp, sp, FRAME_SIZE
 1a8:	09810113          	addi	sp,sp,152
    mret
 1ac:	30200073          	mret

000001b0 <task1>:
     * completion checks.  Real RTOSes would sleep here instead.       */
    for (;;) task_yield();
}

static void task1(void)
{
 1b0:	fe010113          	addi	sp,sp,-32
 1b4:	00812c23          	sw	s0,24(sp)
 1b8:	00912a23          	sw	s1,20(sp)
 1bc:	01212823          	sw	s2,16(sp)
 1c0:	01312623          	sw	s3,12(sp)
 1c4:	00112e23          	sw	ra,28(sp)
    for (int i = 0; i < TASK_ITERS; i++) {
 1c8:	00000413          	li	s0,0
        uart_printf("[task1] iter=%d tick=%u\n", i, timer_count);
 1cc:	200009b7          	lui	s3,0x20000
 1d0:	00001937          	lui	s2,0x1
    for (int i = 0; i < TASK_ITERS; i++) {
 1d4:	00300493          	li	s1,3
        uart_printf("[task1] iter=%d tick=%u\n", i, timer_count);
 1d8:	0149a603          	lw	a2,20(s3) # 20000014 <timer_count>
 1dc:	00040593          	mv	a1,s0
 1e0:	9e090513          	addi	a0,s2,-1568 # 9e0 <uart_printf+0x238>
 1e4:	5c4000ef          	jal	7a8 <uart_printf>
    for (int i = 0; i < TASK_ITERS; i++) {
 1e8:	00140413          	addi	s0,s0,1
        task_yield();
 1ec:	20c000ef          	jal	3f8 <task_yield>
    for (int i = 0; i < TASK_ITERS; i++) {
 1f0:	fe9414e3          	bne	s0,s1,1d8 <task1+0x28>
    }
    task_done[1] = 1;
 1f4:	200007b7          	lui	a5,0x20000
 1f8:	01078793          	addi	a5,a5,16 # 20000010 <task_done>
 1fc:	00100713          	li	a4,1
 200:	00e780a3          	sb	a4,1(a5)
    for (;;) task_yield();
 204:	1f4000ef          	jal	3f8 <task_yield>
 208:	ffdff06f          	j	204 <task1+0x54>

0000020c <task0>:
{
 20c:	fe010113          	addi	sp,sp,-32
 210:	00812c23          	sw	s0,24(sp)
 214:	00912a23          	sw	s1,20(sp)
 218:	01212823          	sw	s2,16(sp)
 21c:	01312623          	sw	s3,12(sp)
 220:	00112e23          	sw	ra,28(sp)
    for (int i = 0; i < TASK_ITERS; i++) {
 224:	00000413          	li	s0,0
        uart_printf("[task0] iter=%d tick=%u\n", i, timer_count);
 228:	200009b7          	lui	s3,0x20000
 22c:	00001937          	lui	s2,0x1
    for (int i = 0; i < TASK_ITERS; i++) {
 230:	00300493          	li	s1,3
        uart_printf("[task0] iter=%d tick=%u\n", i, timer_count);
 234:	0149a603          	lw	a2,20(s3) # 20000014 <timer_count>
 238:	00040593          	mv	a1,s0
 23c:	9fc90513          	addi	a0,s2,-1540 # 9fc <uart_printf+0x254>
 240:	568000ef          	jal	7a8 <uart_printf>
    for (int i = 0; i < TASK_ITERS; i++) {
 244:	00140413          	addi	s0,s0,1
        task_yield();
 248:	1b0000ef          	jal	3f8 <task_yield>
    for (int i = 0; i < TASK_ITERS; i++) {
 24c:	fe9414e3          	bne	s0,s1,234 <task0+0x28>
    task_done[0] = 1;
 250:	200007b7          	lui	a5,0x20000
 254:	00100713          	li	a4,1
 258:	00e78823          	sb	a4,16(a5) # 20000010 <task_done>
    for (;;) task_yield();
 25c:	19c000ef          	jal	3f8 <task_yield>
 260:	ffdff06f          	j	25c <task0+0x50>

00000264 <clint_schedule_relative.constprop.0.isra.0>:
static inline void     mmio_write32(uintptr_t addr, uint32_t v) {
    *(volatile uint32_t *)addr = v;
}

static inline uint32_t mmio_read32(uintptr_t addr) {
    return *(volatile uint32_t *)addr;
 264:	4200c737          	lui	a4,0x4200c
 268:	4200c6b7          	lui	a3,0x4200c
 26c:	ffc70713          	addi	a4,a4,-4 # 4200bffc <__stack_top+0x21fcbffc>
 270:	ff868693          	addi	a3,a3,-8 # 4200bff8 <__stack_top+0x21fcbff8>
 274:	00072603          	lw	a2,0(a4)
 278:	0006a783          	lw	a5,0(a3)
 27c:	00072583          	lw	a1,0(a4)
    uint32_t hi0, lo, hi1;
    do {
        hi0 = mmio_read32(CLINT_MTIME_HI_ADDR);
        lo  = mmio_read32(CLINT_MTIME_LO_ADDR);
        hi1 = mmio_read32(CLINT_MTIME_HI_ADDR);
    } while (hi0 != hi1);
 280:	feb61ae3          	bne	a2,a1,274 <clint_schedule_relative.constprop.0.isra.0+0x10>
/* delta_ticks to the previous mtimecmp instead of "now" to avoid      */
/* slipping.                                                           */
/* ------------------------------------------------------------------ */
static inline uint64_t clint_schedule_relative(uint64_t delta_ticks)
{
    uint64_t deadline = clint_mtime() + delta_ticks;
 284:	00001737          	lui	a4,0x1
 288:	38870713          	addi	a4,a4,904 # 1388 <_data_lma+0x81c>
 28c:	00e78733          	add	a4,a5,a4
 290:	00f737b3          	sltu	a5,a4,a5
 294:	00c787b3          	add	a5,a5,a2
    *(volatile uint32_t *)addr = v;
 298:	420046b7          	lui	a3,0x42004
 29c:	fff00613          	li	a2,-1
 2a0:	00c6a223          	sw	a2,4(a3) # 42004004 <__stack_top+0x21fc4004>
 2a4:	42004637          	lui	a2,0x42004
 2a8:	00e62023          	sw	a4,0(a2) # 42004000 <__stack_top+0x21fc4000>
 2ac:	00f6a223          	sw	a5,4(a3)
    clint_set_mtimecmp(deadline);
    return deadline;
}
 2b0:	00008067          	ret

000002b4 <timer_tick>:
    timer_count++;
 2b4:	20000737          	lui	a4,0x20000
 2b8:	01472783          	lw	a5,20(a4) # 20000014 <timer_count>
 2bc:	00178793          	addi	a5,a5,1
 2c0:	00f72a23          	sw	a5,20(a4)
    clint_schedule_relative(TICK_INTERVAL_TICKS);
 2c4:	fa1ff06f          	j	264 <clint_schedule_relative.constprop.0.isra.0>

000002c8 <main>:
}

int main(void)
{
 2c8:	ff010113          	addi	sp,sp,-16
 2cc:	00112623          	sw	ra,12(sp)
 2d0:	00812423          	sw	s0,8(sp)
 2d4:	00912223          	sw	s1,4(sp)
    bsp_init();
 2d8:	3a8000ef          	jal	680 <bsp_init>
    uart_puts("os_demo boot\n");
 2dc:	00001537          	lui	a0,0x1
 2e0:	a1850513          	addi	a0,a0,-1512 # a18 <uart_printf+0x270>
 2e4:	4a8000ef          	jal	78c <uart_puts>

    bsp_set_timer_handler(timer_tick);
 2e8:	2b400513          	li	a0,692
 2ec:	268000ef          	jal	554 <bsp_set_timer_handler>
    clint_schedule_relative(TICK_INTERVAL_TICKS);
 2f0:	f75ff0ef          	jal	264 <clint_schedule_relative.constprop.0.isra.0>
    bsp_enable_timer_interrupt();
 2f4:	280000ef          	jal	574 <bsp_enable_timer_interrupt>
    bsp_irq_enable();
 2f8:	264000ef          	jal	55c <bsp_irq_enable>

    sched_init();
 2fc:	078000ef          	jal	374 <sched_init>
    if (task_create(task0) < 0 || task_create(task1) < 0) {
 300:	20c00513          	li	a0,524
 304:	084000ef          	jal	388 <task_create>
 308:	04054a63          	bltz	a0,35c <main+0x94>
 30c:	1b000513          	li	a0,432
 310:	078000ef          	jal	388 <task_create>
 314:	04054463          	bltz	a0,35c <main+0x94>
        uart_puts("os_demo: task_create failed\n");
        for (;;) {}
    }

    while (!(task_done[0] && task_done[1])) {
 318:	20000437          	lui	s0,0x20000
 31c:	01040493          	addi	s1,s0,16 # 20000010 <task_done>
 320:	01044783          	lbu	a5,16(s0)
 324:	04078463          	beqz	a5,36c <main+0xa4>
 328:	0014c783          	lbu	a5,1(s1)
 32c:	04078063          	beqz	a5,36c <main+0xa4>
        task_yield();
    }

    bsp_irq_disable();
 330:	238000ef          	jal	568 <bsp_irq_disable>

    uart_printf("os_demo: all tasks finished (ticks=%u)\n", timer_count);
 334:	200007b7          	lui	a5,0x20000
 338:	0147a583          	lw	a1,20(a5) # 20000014 <timer_count>
 33c:	00001537          	lui	a0,0x1
 340:	a4850513          	addi	a0,a0,-1464 # a48 <uart_printf+0x2a0>
 344:	464000ef          	jal	7a8 <uart_printf>
    uart_puts("OS_DEMO_PASS\n");
 348:	00001537          	lui	a0,0x1
 34c:	a7050513          	addi	a0,a0,-1424 # a70 <uart_printf+0x2c8>
 350:	43c000ef          	jal	78c <uart_puts>

    for (;;) {
        __asm__ volatile("wfi");
 354:	10500073          	wfi
    for (;;) {
 358:	ffdff06f          	j	354 <main+0x8c>
        uart_puts("os_demo: task_create failed\n");
 35c:	00001537          	lui	a0,0x1
 360:	a2850513          	addi	a0,a0,-1496 # a28 <uart_printf+0x280>
 364:	428000ef          	jal	78c <uart_puts>
        for (;;) {}
 368:	0000006f          	j	368 <main+0xa0>
        task_yield();
 36c:	08c000ef          	jal	3f8 <task_yield>
 370:	fb1ff06f          	j	320 <main+0x58>

00000374 <sched_init>:
static int                 ntasks;
static int                 cur_task = -1;

void sched_init(void)
{
    ntasks   = 1;
 374:	00100713          	li	a4,1
 378:	80e1aa23          	sw	a4,-2028(gp) # 20000018 <ntasks>
    cur_task = 0;
 37c:	200007b7          	lui	a5,0x20000
 380:	0007a023          	sw	zero,0(a5) # 20000000 <cur_task>
    /* ctx[0] is left zero-initialised; the first task_yield() call
     * snapshots the live callee-saved regs into it before switching.  */
}
 384:	00008067          	ret

00000388 <task_create>:

int task_create(void (*entry)(void))
{
 388:	00050613          	mv	a2,a0
    if (ntasks >= SCHED_MAX_TASKS) {
 38c:	8141a503          	lw	a0,-2028(gp) # 20000018 <ntasks>
 390:	00300713          	li	a4,3
 394:	04a74e63          	blt	a4,a0,3f0 <task_create+0x68>
        return -1;
    }

    int id = ntasks++;
 398:	00150693          	addi	a3,a0,1
 39c:	80d1aa23          	sw	a3,-2028(gp) # 20000018 <ntasks>
    struct sched_ctx *c = &tasks[id];
 3a0:	03800793          	li	a5,56
 3a4:	02f507b3          	mul	a5,a0,a5
 3a8:	20002737          	lui	a4,0x20002
 3ac:	03070593          	addi	a1,a4,48 # 20002030 <tasks>
 3b0:	03070713          	addi	a4,a4,48
 3b4:	00b787b3          	add	a5,a5,a1
 3b8:	03878593          	addi	a1,a5,56
     * irrelevant: task entries take no arguments, and the callee-
     * saved regs don't need a defined value on first entry.  Avoid
     * memset here because we link -nostdlib.                          */
    uint32_t *p = (uint32_t *)c;
    for (unsigned i = 0; i < sizeof(*c) / sizeof(uint32_t); i++) {
        p[i] = 0;
 3bc:	0007a023          	sw	zero,0(a5)
    for (unsigned i = 0; i < sizeof(*c) / sizeof(uint32_t); i++) {
 3c0:	00478793          	addi	a5,a5,4
 3c4:	feb79ce3          	bne	a5,a1,3bc <task_create+0x34>
    }
    c->ra = (uint32_t)(uintptr_t)entry;
 3c8:	03800793          	li	a5,56
 3cc:	02f507b3          	mul	a5,a0,a5
    c->sp = (uint32_t)(uintptr_t)&stacks[id][SCHED_STACK_SIZE];
 3d0:	00b69693          	slli	a3,a3,0xb
    c->ra = (uint32_t)(uintptr_t)entry;
 3d4:	00f707b3          	add	a5,a4,a5
    c->sp = (uint32_t)(uintptr_t)&stacks[id][SCHED_STACK_SIZE];
 3d8:	20000737          	lui	a4,0x20000
 3dc:	03070713          	addi	a4,a4,48 # 20000030 <stacks>
 3e0:	00e686b3          	add	a3,a3,a4
    c->ra = (uint32_t)(uintptr_t)entry;
 3e4:	00c7a023          	sw	a2,0(a5)
    c->sp = (uint32_t)(uintptr_t)&stacks[id][SCHED_STACK_SIZE];
 3e8:	00d7a223          	sw	a3,4(a5)
    return id;
 3ec:	00008067          	ret
        return -1;
 3f0:	fff00513          	li	a0,-1
}
 3f4:	00008067          	ret

000003f8 <task_yield>:

void task_yield(void)
{
    if (ntasks <= 1) return;
 3f8:	8141a683          	lw	a3,-2028(gp) # 20000018 <ntasks>
 3fc:	00100793          	li	a5,1
 400:	02d7dc63          	bge	a5,a3,438 <task_yield+0x40>
    int prev = cur_task;
 404:	20000737          	lui	a4,0x20000
 408:	00072783          	lw	a5,0(a4) # 20000000 <cur_task>
    int next = (cur_task + 1) % ntasks;
    cur_task = next;
    sched_switch(&tasks[prev], &tasks[next]);
 40c:	20002537          	lui	a0,0x20002
 410:	03050513          	addi	a0,a0,48 # 20002030 <tasks>
    int next = (cur_task + 1) % ntasks;
 414:	00178593          	addi	a1,a5,1
 418:	02d5e5b3          	rem	a1,a1,a3
    cur_task = next;
 41c:	00b72023          	sw	a1,0(a4)
    sched_switch(&tasks[prev], &tasks[next]);
 420:	03800713          	li	a4,56
 424:	02e585b3          	mul	a1,a1,a4
 428:	02e787b3          	mul	a5,a5,a4
 42c:	00b505b3          	add	a1,a0,a1
 430:	00f50533          	add	a0,a0,a5
 434:	0080006f          	j	43c <sched_switch>
}
 438:	00008067          	ret

0000043c <sched_switch>:
    .globl   sched_switch
    .type    sched_switch, @function
    .align   2

sched_switch:
    sw   ra,  0(a0)
 43c:	00152023          	sw	ra,0(a0)
    sw   sp,  4(a0)
 440:	00252223          	sw	sp,4(a0)
    sw   s0,  8(a0)
 444:	00852423          	sw	s0,8(a0)
    sw   s1, 12(a0)
 448:	00952623          	sw	s1,12(a0)
    sw   s2, 16(a0)
 44c:	01252823          	sw	s2,16(a0)
    sw   s3, 20(a0)
 450:	01352a23          	sw	s3,20(a0)
    sw   s4, 24(a0)
 454:	01452c23          	sw	s4,24(a0)
    sw   s5, 28(a0)
 458:	01552e23          	sw	s5,28(a0)
    sw   s6, 32(a0)
 45c:	03652023          	sw	s6,32(a0)
    sw   s7, 36(a0)
 460:	03752223          	sw	s7,36(a0)
    sw   s8, 40(a0)
 464:	03852423          	sw	s8,40(a0)
    sw   s9, 44(a0)
 468:	03952623          	sw	s9,44(a0)
    sw   s10,48(a0)
 46c:	03a52823          	sw	s10,48(a0)
    sw   s11,52(a0)
 470:	03b52a23          	sw	s11,52(a0)

    lw   ra,  0(a1)
 474:	0005a083          	lw	ra,0(a1)
    lw   sp,  4(a1)
 478:	0045a103          	lw	sp,4(a1)
    lw   s0,  8(a1)
 47c:	0085a403          	lw	s0,8(a1)
    lw   s1, 12(a1)
 480:	00c5a483          	lw	s1,12(a1)
    lw   s2, 16(a1)
 484:	0105a903          	lw	s2,16(a1)
    lw   s3, 20(a1)
 488:	0145a983          	lw	s3,20(a1)
    lw   s4, 24(a1)
 48c:	0185aa03          	lw	s4,24(a1)
    lw   s5, 28(a1)
 490:	01c5aa83          	lw	s5,28(a1)
    lw   s6, 32(a1)
 494:	0205ab03          	lw	s6,32(a1)
    lw   s7, 36(a1)
 498:	0245ab83          	lw	s7,36(a1)
    lw   s8, 40(a1)
 49c:	0285ac03          	lw	s8,40(a1)
    lw   s9, 44(a1)
 4a0:	02c5ac83          	lw	s9,44(a1)
    lw   s10,48(a1)
 4a4:	0305ad03          	lw	s10,48(a1)
    lw   s11,52(a1)
 4a8:	0345ad83          	lw	s11,52(a1)
    ret
 4ac:	00008067          	ret

000004b0 <default_banner>:

/* ------------------------------------------------------------------ */
/* Panic fallback                                                      */
/* ------------------------------------------------------------------ */
static void default_banner(const struct bsp_trap_frame *f, const char *tag)
{
 4b0:	ff010113          	addi	sp,sp,-16
 4b4:	00812423          	sw	s0,8(sp)
 4b8:	00050413          	mv	s0,a0
    uart_puts("\n[bsp] UNHANDLED TRAP: ");
 4bc:	00001537          	lui	a0,0x1
 4c0:	a8050513          	addi	a0,a0,-1408 # a80 <uart_printf+0x2d8>
{
 4c4:	00112623          	sw	ra,12(sp)
 4c8:	00912223          	sw	s1,4(sp)
 4cc:	00058493          	mv	s1,a1
    uart_puts("\n[bsp] UNHANDLED TRAP: ");
 4d0:	2bc000ef          	jal	78c <uart_puts>
    uart_puts(tag);
 4d4:	00048513          	mv	a0,s1
 4d8:	2b4000ef          	jal	78c <uart_puts>
    uart_printf("  mcause=0x%08x  mepc=0x%08x  mtval=0x%08x  mstatus=0x%08x\n",
 4dc:	08c42703          	lw	a4,140(s0)
 4e0:	08842683          	lw	a3,136(s0)
 4e4:	08042603          	lw	a2,128(s0)
 4e8:	08442583          	lw	a1,132(s0)
 4ec:	00001537          	lui	a0,0x1
 4f0:	a9850513          	addi	a0,a0,-1384 # a98 <uart_printf+0x2f0>
 4f4:	2b4000ef          	jal	7a8 <uart_printf>
                f->mcause, f->mepc, f->mtval, f->mstatus);
    for (;;) {
 4f8:	0000006f          	j	4f8 <default_banner+0x48>

000004fc <default_exception>:
    }
}

static void default_exception(const struct bsp_trap_frame *f)
{
    default_banner(f, "exception");
 4fc:	000015b7          	lui	a1,0x1
{
 500:	ff010113          	addi	sp,sp,-16
    default_banner(f, "exception");
 504:	ad458593          	addi	a1,a1,-1324 # ad4 <uart_printf+0x32c>
{
 508:	00112623          	sw	ra,12(sp)
    default_banner(f, "exception");
 50c:	fa5ff0ef          	jal	4b0 <default_banner>

00000510 <default_soft>:
    mmio_write32(CLINT_MTIMECMP_LO_ADDR, 0xFFFFFFFFu);
    default_banner(f, "unhandled mti");
}

static void default_soft(const struct bsp_trap_frame *f)
{
 510:	ff010113          	addi	sp,sp,-16
 514:	00112623          	sw	ra,12(sp)
 518:	420007b7          	lui	a5,0x42000
    clint_clear_ipi();
    default_banner(f, "unhandled msi");
 51c:	000015b7          	lui	a1,0x1
 520:	0007a023          	sw	zero,0(a5) # 42000000 <__stack_top+0x21fc0000>
 524:	ae058593          	addi	a1,a1,-1312 # ae0 <uart_printf+0x338>
 528:	f89ff0ef          	jal	4b0 <default_banner>

0000052c <default_timer>:
{
 52c:	ff010113          	addi	sp,sp,-16
 530:	00112623          	sw	ra,12(sp)
 534:	420047b7          	lui	a5,0x42004
 538:	fff00713          	li	a4,-1
 53c:	00e7a223          	sw	a4,4(a5) # 42004004 <__stack_top+0x21fc4004>
    default_banner(f, "unhandled mti");
 540:	000015b7          	lui	a1,0x1
 544:	420047b7          	lui	a5,0x42004
 548:	00e7a023          	sw	a4,0(a5) # 42004000 <__stack_top+0x21fc4000>
 54c:	af058593          	addi	a1,a1,-1296 # af0 <uart_printf+0x348>
 550:	f61ff0ef          	jal	4b0 <default_banner>

00000554 <bsp_set_timer_handler>:
}

/* ------------------------------------------------------------------ */
/* Registration API                                                    */
/* ------------------------------------------------------------------ */
void bsp_set_timer_handler(bsp_trap_handler_t h) { timer_handler = h; }
 554:	80a1ae23          	sw	a0,-2020(gp) # 20000020 <timer_handler>
 558:	00008067          	ret

0000055c <bsp_irq_enable>:
}

/* ------------------------------------------------------------------ */
/* Global enable/disable                                               */
/* ------------------------------------------------------------------ */
void bsp_irq_enable(void)  { csr_set(mstatus, MSTATUS_MIE); }
 55c:	00800793          	li	a5,8
 560:	3007a7f3          	csrrs	a5,mstatus,a5
 564:	00008067          	ret

00000568 <bsp_irq_disable>:
void bsp_irq_disable(void) { csr_clear(mstatus, MSTATUS_MIE); }
 568:	00800793          	li	a5,8
 56c:	3007b7f3          	csrrc	a5,mstatus,a5
 570:	00008067          	ret

00000574 <bsp_enable_timer_interrupt>:

void bsp_enable_timer_interrupt(void)    { csr_set(mie, MIE_MTIE); }
 574:	08000793          	li	a5,128
 578:	3047a7f3          	csrrs	a5,mie,a5
 57c:	00008067          	ret

00000580 <bsp_trap_dispatch>:
/* ------------------------------------------------------------------ */
/* Dispatcher.  Called once per trap from trap_entry.S.                */
/* ------------------------------------------------------------------ */
void bsp_trap_dispatch(struct bsp_trap_frame *f)
{
    uint32_t mcause = f->mcause;
 580:	08452783          	lw	a5,132(a0)
{
 584:	00050713          	mv	a4,a0

    if (mcause & MCAUSE_INTERRUPT_BIT) {
 588:	0c07d863          	bgez	a5,658 <bsp_trap_dispatch+0xd8>
        uint32_t code = mcause & MCAUSE_CODE_MASK;
 58c:	00179793          	slli	a5,a5,0x1
 590:	0017d793          	srli	a5,a5,0x1
        switch (code) {
 594:	00700693          	li	a3,7
 598:	02d78663          	beq	a5,a3,5c4 <bsp_trap_dispatch+0x44>
{
 59c:	fe010113          	addi	sp,sp,-32
 5a0:	00112e23          	sw	ra,28(sp)
 5a4:	00812c23          	sw	s0,24(sp)
        switch (code) {
 5a8:	00b00613          	li	a2,11
 5ac:	04c78663          	beq	a5,a2,5f8 <bsp_trap_dispatch+0x78>
 5b0:	00300693          	li	a3,3
 5b4:	02d78263          	beq	a5,a3,5d8 <bsp_trap_dispatch+0x58>
                plic_complete(irq);
            }
            break;
        }
        default:
            default_banner(f, "unknown interrupt cause");
 5b8:	000015b7          	lui	a1,0x1
 5bc:	b2058593          	addi	a1,a1,-1248 # b20 <uart_printf+0x378>
 5c0:	ef1ff0ef          	jal	4b0 <default_banner>
            (timer_handler ? timer_handler : default_timer)(f);
 5c4:	81c1a783          	lw	a5,-2020(gp) # 20000020 <timer_handler>
 5c8:	00079463          	bnez	a5,5d0 <bsp_trap_dispatch+0x50>
 5cc:	52c00793          	li	a5,1324
        }
    } else {
        uint32_t code = mcause & MCAUSE_CODE_MASK;
        bsp_trap_handler_t h =
            (code < EXC_HANDLER_SLOTS) ? exc_handlers[code] : NULL;
        (h ? h : default_exception)(f);
 5d0:	00070513          	mv	a0,a4
 5d4:	0200006f          	j	5f4 <bsp_trap_dispatch+0x74>
            (soft_handler ? soft_handler : default_soft)(f);
 5d8:	8181a783          	lw	a5,-2024(gp) # 2000001c <soft_handler>
 5dc:	00079463          	bnez	a5,5e4 <bsp_trap_dispatch+0x64>
 5e0:	51000793          	li	a5,1296
    }
}
 5e4:	01812403          	lw	s0,24(sp)
 5e8:	01c12083          	lw	ra,28(sp)
            (soft_handler ? soft_handler : default_soft)(f);
 5ec:	00070513          	mv	a0,a4
}
 5f0:	02010113          	addi	sp,sp,32
        (h ? h : default_exception)(f);
 5f4:	00078067          	jr	a5
    return *(volatile uint32_t *)addr;
 5f8:	44200437          	lui	s0,0x44200
 5fc:	00442583          	lw	a1,4(s0) # 44200004 <__stack_top+0x241c0004>
 600:	00440413          	addi	s0,s0,4
            if (irq) {
 604:	02058a63          	beqz	a1,638 <bsp_trap_dispatch+0xb8>
                if (irq < IRQ_HANDLER_SLOTS && irq_handlers[irq])
 608:	04b6e063          	bltu	a3,a1,648 <bsp_trap_dispatch+0xc8>
 60c:	200027b7          	lui	a5,0x20002
 610:	00259713          	slli	a4,a1,0x2
 614:	11078793          	addi	a5,a5,272 # 20002110 <irq_handlers>
 618:	00e787b3          	add	a5,a5,a4
 61c:	0007a783          	lw	a5,0(a5)
 620:	02078463          	beqz	a5,648 <bsp_trap_dispatch+0xc8>
                    irq_handlers[irq](irq);
 624:	00058513          	mv	a0,a1
 628:	00b12623          	sw	a1,12(sp)
 62c:	000780e7          	jalr	a5
    *(volatile uint32_t *)addr = v;
 630:	00c12583          	lw	a1,12(sp)
 634:	00b42023          	sw	a1,0(s0)
}
 638:	01c12083          	lw	ra,28(sp)
 63c:	01812403          	lw	s0,24(sp)
 640:	02010113          	addi	sp,sp,32
 644:	00008067          	ret
    uart_printf("\n[bsp] UNHANDLED PLIC IRQ %u\n", irq);
 648:	00001537          	lui	a0,0x1
 64c:	b0050513          	addi	a0,a0,-1280 # b00 <uart_printf+0x358>
 650:	158000ef          	jal	7a8 <uart_printf>
    for (;;) {}
 654:	0000006f          	j	654 <bsp_trap_dispatch+0xd4>
            (code < EXC_HANDLER_SLOTS) ? exc_handlers[code] : NULL;
 658:	00b00693          	li	a3,11
 65c:	00f6ee63          	bltu	a3,a5,678 <bsp_trap_dispatch+0xf8>
 660:	200026b7          	lui	a3,0x20002
 664:	00279793          	slli	a5,a5,0x2
 668:	13068693          	addi	a3,a3,304 # 20002130 <exc_handlers>
 66c:	00f687b3          	add	a5,a3,a5
 670:	0007a783          	lw	a5,0(a5)
        (h ? h : default_exception)(f);
 674:	f4079ee3          	bnez	a5,5d0 <bsp_trap_dispatch+0x50>
 678:	4fc00793          	li	a5,1276
 67c:	f55ff06f          	j	5d0 <bsp_trap_dispatch+0x50>

00000680 <bsp_init>:
/* ------------------------------------------------------------------ */
void bsp_init(void)
{
    /* mtvec -- direct mode (no vectoring).  Must be 4-byte aligned,   */
    /* which GCC guarantees for a function symbol.                      */
    csr_write(mtvec, (uint32_t)(uintptr_t)bsp_trap_entry);
 680:	07000793          	li	a5,112
 684:	30579073          	csrw	mtvec,a5

    /* Make sure we start with a known mstatus baseline: MPP=M (so      */
    /* mret stays in M-mode), MIE=0 (application opts in later).        */
    csr_write(mstatus, MSTATUS_MPP);
 688:	000027b7          	lui	a5,0x2
 68c:	80078793          	addi	a5,a5,-2048 # 1800 <_data_lma+0xc94>
 690:	30079073          	csrw	mstatus,a5

    /* Silence any stale interrupt enables left over from a previous    */
    /* boot (e.g. warm reset via UART downloader).                      */
    csr_write(mie, 0);
 694:	00000793          	li	a5,0
 698:	30479073          	csrw	mie,a5
    return *(volatile uint32_t *)addr;
 69c:	442007b7          	lui	a5,0x44200
 6a0:	0047a703          	lw	a4,4(a5) # 44200004 <__stack_top+0x241c0004>
 6a4:	00478793          	addi	a5,a5,4

    /* Drain any pending PLIC claim so we don't trip the default_irq    */
    /* fallback on first enable.                                         */
    uint32_t irq = plic_claim();
    if (irq) plic_complete(irq);
 6a8:	00070463          	beqz	a4,6b0 <bsp_init+0x30>
    *(volatile uint32_t *)addr = v;
 6ac:	00e7a023          	sw	a4,0(a5)
 6b0:	420047b7          	lui	a5,0x42004
 6b4:	fff00713          	li	a4,-1
 6b8:	00e7a223          	sw	a4,4(a5) # 42004004 <__stack_top+0x21fc4004>
 6bc:	420047b7          	lui	a5,0x42004
 6c0:	00e7a023          	sw	a4,0(a5) # 42004000 <__stack_top+0x21fc4000>
 6c4:	420007b7          	lui	a5,0x42000
 6c8:	0007a023          	sw	zero,0(a5) # 42000000 <__stack_top+0x21fc0000>
    mmio_write32(CLINT_MTIMECMP_HI_ADDR, 0xFFFFFFFFu);
    mmio_write32(CLINT_MTIMECMP_LO_ADDR, 0xFFFFFFFFu);

    /* Clear any software interrupt left over.                          */
    clint_clear_ipi();
}
 6cc:	00008067          	ret

000006d0 <put_uint>:
 * have to link against the GCC printf.  Newlib's printf pulls in ~15 KB
 * of code on its own, and we need room for the kernel + scheduler.    */
/* ------------------------------------------------------------------ */

static void put_uint(uint32_t val, uint32_t base, int upper_case, int pad_width, char pad_char)
{
 6d0:	fd010113          	addi	sp,sp,-48
    static const char digits_lower[] = "0123456789abcdef";
    static const char digits_upper[] = "0123456789ABCDEF";
    const char *digits = upper_case ? digits_upper : digits_lower;
 6d4:	04060663          	beqz	a2,720 <put_uint+0x50>
 6d8:	00001637          	lui	a2,0x1
 6dc:	b5860613          	addi	a2,a2,-1192 # b58 <digits_upper.1>
    /* 32 bits in base 2 is 32 digits + terminator; base 10 is at most
     * 10 digits.  Use 33 to cover every sensible case.                */
    char buf[33];
    int i = 0;

    if (val == 0) {
 6e0:	04051663          	bnez	a0,72c <put_uint+0x5c>
        buf[i++] = '0';
 6e4:	03000793          	li	a5,48
 6e8:	00f10623          	sb	a5,12(sp)
 6ec:	00100793          	li	a5,1
    int i = 0;
 6f0:	00078613          	mv	a2,a5
            buf[i++] = digits[val % base];
            val /= base;
        }
    }

    for (; i < pad_width; i++) {
 6f4:	06d64863          	blt	a2,a3,764 <put_uint+0x94>
 6f8:	00000713          	li	a4,0
 6fc:	00f6c463          	blt	a3,a5,704 <put_uint+0x34>
 700:	40f68733          	sub	a4,a3,a5
 704:	00e787b3          	add	a5,a5,a4
 708:	430006b7          	lui	a3,0x43000
        buf[i] = pad_char;
    }

    while (i-- > 0) {
 70c:	fff00713          	li	a4,-1
 710:	fff78793          	addi	a5,a5,-1
 714:	06e79263          	bne	a5,a4,778 <put_uint+0xa8>
        uart_putc(buf[i]);
    }
}
 718:	03010113          	addi	sp,sp,48
 71c:	00008067          	ret
    const char *digits = upper_case ? digits_upper : digits_lower;
 720:	00001637          	lui	a2,0x1
 724:	b4460613          	addi	a2,a2,-1212 # b44 <digits_lower.0>
 728:	fb9ff06f          	j	6e0 <put_uint+0x10>
 72c:	00c10813          	addi	a6,sp,12
    int i = 0;
 730:	00000793          	li	a5,0
        while (val != 0 && i < 32) {
 734:	02000313          	li	t1,32
            buf[i++] = digits[val % base];
 738:	02b578b3          	remu	a7,a0,a1
 73c:	00178793          	addi	a5,a5,1
 740:	011608b3          	add	a7,a2,a7
 744:	0008c883          	lbu	a7,0(a7)
 748:	01180023          	sb	a7,0(a6)
            val /= base;
 74c:	00050893          	mv	a7,a0
 750:	02b55533          	divu	a0,a0,a1
        while (val != 0 && i < 32) {
 754:	f8b8eee3          	bltu	a7,a1,6f0 <put_uint+0x20>
 758:	00180813          	addi	a6,a6,1
 75c:	fc679ee3          	bne	a5,t1,738 <put_uint+0x68>
 760:	f91ff06f          	j	6f0 <put_uint+0x20>
        buf[i] = pad_char;
 764:	00c10593          	addi	a1,sp,12
 768:	00c585b3          	add	a1,a1,a2
 76c:	00e58023          	sb	a4,0(a1)
    for (; i < pad_width; i++) {
 770:	00160613          	addi	a2,a2,1
 774:	f81ff06f          	j	6f4 <put_uint+0x24>
        uart_putc(buf[i]);
 778:	00c10613          	addi	a2,sp,12
 77c:	00f60633          	add	a2,a2,a5
    mmio_write32(UART_DATA_REG, (uint8_t)c);
 780:	00064603          	lbu	a2,0(a2)
 784:	00c6a023          	sw	a2,0(a3) # 43000000 <__stack_top+0x22fc0000>
}
 788:	f89ff06f          	j	710 <put_uint+0x40>

0000078c <uart_puts>:
 78c:	43000737          	lui	a4,0x43000
    while (*s) {
 790:	00054783          	lbu	a5,0(a0)
 794:	00079463          	bnez	a5,79c <uart_puts+0x10>
}
 798:	00008067          	ret
        uart_putc(*s++);
 79c:	00150513          	addi	a0,a0,1
 7a0:	00f72023          	sw	a5,0(a4) # 43000000 <__stack_top+0x22fc0000>
}
 7a4:	fedff06f          	j	790 <uart_puts+0x4>

000007a8 <uart_printf>:
        put_uint((uint32_t)val, 10, 0, pad_width, pad_char);
    }
}

int uart_printf(const char *fmt, ...)
{
 7a8:	fb010113          	addi	sp,sp,-80
 7ac:	04f12223          	sw	a5,68(sp)
    va_list ap;
    va_start(ap, fmt);
 7b0:	03410793          	addi	a5,sp,52
{
 7b4:	02812423          	sw	s0,40(sp)
 7b8:	02912223          	sw	s1,36(sp)
 7bc:	03212023          	sw	s2,32(sp)
 7c0:	01312e23          	sw	s3,28(sp)
 7c4:	01412c23          	sw	s4,24(sp)
 7c8:	01512a23          	sw	s5,20(sp)
 7cc:	01612823          	sw	s6,16(sp)
 7d0:	02112623          	sw	ra,44(sp)
 7d4:	00050413          	mv	s0,a0
 7d8:	02b12a23          	sw	a1,52(sp)
 7dc:	02c12c23          	sw	a2,56(sp)
 7e0:	02d12e23          	sw	a3,60(sp)
 7e4:	04e12023          	sw	a4,64(sp)
 7e8:	05012423          	sw	a6,72(sp)
 7ec:	05112623          	sw	a7,76(sp)
    va_start(ap, fmt);
 7f0:	00f12623          	sw	a5,12(sp)

    int pad_width;
    char pad_char;

    for (const char *p = fmt; *p; p++) {
        if (*p != '%') {
 7f4:	02500993          	li	s3,37
        pad_char  = ' ';

        /* Parse the (intentionally tiny) flag/width syntax:
         *   '0' -> pad with '0', then digits
         *   digits -> zero-extended minimum field width            */
        if (*p == '0') {
 7f8:	03000a13          	li	s4,48
            pad_char = '0';
            p++;
        }
        while (*p >= '0' && *p <= '9') {
 7fc:	00900a93          	li	s5,9
            pad_width = pad_width * 10 + (*p - '0');
 800:	00a00b13          	li	s6,10
            p++;
        }

        switch (*p) {
 804:	06900493          	li	s1,105
 808:	07500913          	li	s2,117
    for (const char *p = fmt; *p; p++) {
 80c:	00044783          	lbu	a5,0(s0)
 810:	02079863          	bnez	a5,840 <uart_printf+0x98>
    }

done:
    va_end(ap);
    return 0;
}
 814:	02c12083          	lw	ra,44(sp)
 818:	02812403          	lw	s0,40(sp)
 81c:	02412483          	lw	s1,36(sp)
 820:	02012903          	lw	s2,32(sp)
 824:	01c12983          	lw	s3,28(sp)
 828:	01812a03          	lw	s4,24(sp)
 82c:	01412a83          	lw	s5,20(sp)
 830:	01012b03          	lw	s6,16(sp)
 834:	00000513          	li	a0,0
 838:	05010113          	addi	sp,sp,80
 83c:	00008067          	ret
        if (*p != '%') {
 840:	01378a63          	beq	a5,s3,854 <uart_printf+0xac>
 844:	43000737          	lui	a4,0x43000
 848:	00f72023          	sw	a5,0(a4) # 43000000 <__stack_top+0x22fc0000>
    for (const char *p = fmt; *p; p++) {
 84c:	00140413          	addi	s0,s0,1
 850:	fbdff06f          	j	80c <uart_printf+0x64>
        if (*p == '0') {
 854:	00144703          	lbu	a4,1(s0)
 858:	07471063          	bne	a4,s4,8b8 <uart_printf+0x110>
            p++;
 85c:	00240413          	addi	s0,s0,2
        pad_char  = ' ';
 860:	00000693          	li	a3,0
 864:	0100006f          	j	874 <uart_printf+0xcc>
            pad_width = pad_width * 10 + (*p - '0');
 868:	036686b3          	mul	a3,a3,s6
            p++;
 86c:	00140413          	addi	s0,s0,1
            pad_width = pad_width * 10 + (*p - '0');
 870:	00d606b3          	add	a3,a2,a3
        while (*p >= '0' && *p <= '9') {
 874:	00044783          	lbu	a5,0(s0)
 878:	fd078613          	addi	a2,a5,-48
 87c:	0ff67593          	zext.b	a1,a2
 880:	febaf4e3          	bgeu	s5,a1,868 <uart_printf+0xc0>
        switch (*p) {
 884:	04978863          	beq	a5,s1,8d4 <uart_printf+0x12c>
 888:	08f4e063          	bltu	s1,a5,908 <uart_printf+0x160>
 88c:	05800613          	li	a2,88
 890:	10c78a63          	beq	a5,a2,9a4 <uart_printf+0x1fc>
 894:	02f66863          	bltu	a2,a5,8c4 <uart_printf+0x11c>
 898:	f6078ee3          	beqz	a5,814 <uart_printf+0x6c>
 89c:	02500713          	li	a4,37
 8a0:	fae782e3          	beq	a5,a4,844 <uart_printf+0x9c>
 8a4:	02500713          	li	a4,37
 8a8:	430007b7          	lui	a5,0x43000
 8ac:	00e7a023          	sw	a4,0(a5) # 43000000 <__stack_top+0x22fc0000>
    mmio_write32(UART_DATA_REG, (uint8_t)c);
 8b0:	00044703          	lbu	a4,0(s0)
 8b4:	0c00006f          	j	974 <uart_printf+0x1cc>
        p++;
 8b8:	00140413          	addi	s0,s0,1
        pad_char  = ' ';
 8bc:	02000713          	li	a4,32
 8c0:	fa1ff06f          	j	860 <uart_printf+0xb8>
        switch (*p) {
 8c4:	06300613          	li	a2,99
 8c8:	08c78c63          	beq	a5,a2,960 <uart_printf+0x1b8>
 8cc:	06400613          	li	a2,100
 8d0:	fcc79ae3          	bne	a5,a2,8a4 <uart_printf+0xfc>
            put_int(va_arg(ap, int32_t), pad_width, pad_char);
 8d4:	00c12783          	lw	a5,12(sp)
 8d8:	0007a503          	lw	a0,0(a5)
 8dc:	00478613          	addi	a2,a5,4
 8e0:	00c12623          	sw	a2,12(sp)
    if (val < 0) {
 8e4:	08055c63          	bgez	a0,97c <uart_printf+0x1d4>
 8e8:	02d00613          	li	a2,45
 8ec:	430007b7          	lui	a5,0x43000
 8f0:	00c7a023          	sw	a2,0(a5) # 43000000 <__stack_top+0x22fc0000>
        put_uint((uint32_t)(-(int64_t)val), 10, 0, pad_width, pad_char);
 8f4:	00a00593          	li	a1,10
 8f8:	00000613          	li	a2,0
 8fc:	40a00533          	neg	a0,a0
            put_uint((uint32_t)(uintptr_t)va_arg(ap, void *), 16, 0, 8, '0');
 900:	dd1ff0ef          	jal	6d0 <put_uint>
            break;
 904:	f49ff06f          	j	84c <uart_printf+0xa4>
        switch (*p) {
 908:	09278063          	beq	a5,s2,988 <uart_printf+0x1e0>
 90c:	02f96c63          	bltu	s2,a5,944 <uart_printf+0x19c>
 910:	07000713          	li	a4,112
 914:	0ae78463          	beq	a5,a4,9bc <uart_printf+0x214>
 918:	07300713          	li	a4,115
 91c:	f8e794e3          	bne	a5,a4,8a4 <uart_printf+0xfc>
            const char *s = va_arg(ap, const char *);
 920:	00c12783          	lw	a5,12(sp)
 924:	0007a503          	lw	a0,0(a5)
 928:	00478713          	addi	a4,a5,4
 92c:	00e12623          	sw	a4,12(sp)
            if (!s) s = "(null)";
 930:	00051663          	bnez	a0,93c <uart_printf+0x194>
 934:	00001537          	lui	a0,0x1
 938:	b3850513          	addi	a0,a0,-1224 # b38 <uart_printf+0x390>
            uart_puts(s);
 93c:	e51ff0ef          	jal	78c <uart_puts>
            break;
 940:	f0dff06f          	j	84c <uart_printf+0xa4>
        switch (*p) {
 944:	07800613          	li	a2,120
 948:	f4c79ee3          	bne	a5,a2,8a4 <uart_printf+0xfc>
            put_uint(va_arg(ap, uint32_t), 16, 0, pad_width, pad_char);
 94c:	00c12783          	lw	a5,12(sp)
 950:	00478613          	addi	a2,a5,4
 954:	00c12623          	sw	a2,12(sp)
            put_uint((uint32_t)(uintptr_t)va_arg(ap, void *), 16, 0, 8, '0');
 958:	00000613          	li	a2,0
 95c:	0580006f          	j	9b4 <uart_printf+0x20c>
            uart_putc((char)va_arg(ap, int));
 960:	00c12783          	lw	a5,12(sp)
 964:	00478713          	addi	a4,a5,4
 968:	00e12623          	sw	a4,12(sp)
    mmio_write32(UART_DATA_REG, (uint8_t)c);
 96c:	0007c703          	lbu	a4,0(a5)
 970:	430007b7          	lui	a5,0x43000
 974:	00e7a023          	sw	a4,0(a5) # 43000000 <__stack_top+0x22fc0000>
}
 978:	ed5ff06f          	j	84c <uart_printf+0xa4>
        put_uint((uint32_t)val, 10, 0, pad_width, pad_char);
 97c:	00000613          	li	a2,0
 980:	00a00593          	li	a1,10
 984:	f7dff06f          	j	900 <uart_printf+0x158>
            put_uint(va_arg(ap, uint32_t), 10, 0, pad_width, pad_char);
 988:	00c12783          	lw	a5,12(sp)
 98c:	00a00593          	li	a1,10
 990:	00478613          	addi	a2,a5,4
 994:	00c12623          	sw	a2,12(sp)
 998:	00000613          	li	a2,0
            put_uint((uint32_t)(uintptr_t)va_arg(ap, void *), 16, 0, 8, '0');
 99c:	0007a503          	lw	a0,0(a5)
 9a0:	f61ff06f          	j	900 <uart_printf+0x158>
            put_uint(va_arg(ap, uint32_t), 16, 1, pad_width, pad_char);
 9a4:	00c12783          	lw	a5,12(sp)
 9a8:	00478613          	addi	a2,a5,4
 9ac:	00c12623          	sw	a2,12(sp)
 9b0:	00100613          	li	a2,1
            put_uint((uint32_t)(uintptr_t)va_arg(ap, void *), 16, 0, 8, '0');
 9b4:	01000593          	li	a1,16
 9b8:	fe5ff06f          	j	99c <uart_printf+0x1f4>
            uart_puts("0x");
 9bc:	00001537          	lui	a0,0x1
 9c0:	b4050513          	addi	a0,a0,-1216 # b40 <uart_printf+0x398>
 9c4:	dc9ff0ef          	jal	78c <uart_puts>
            put_uint((uint32_t)(uintptr_t)va_arg(ap, void *), 16, 0, 8, '0');
 9c8:	00c12783          	lw	a5,12(sp)
 9cc:	00800693          	li	a3,8
 9d0:	00478713          	addi	a4,a5,4
 9d4:	00e12623          	sw	a4,12(sp)
 9d8:	03000713          	li	a4,48
 9dc:	f7dff06f          	j	958 <uart_printf+0x1b0>
